(lp0
(lp1
((lp2
I235
aI574
aI173
a(lp3
I465
aI574
aI389
aI594
atp4
aa(lp5
((lp6
I465
a(lp7
I283
aI366
aI370
atp8
aa(lp9
((lp10
I374
aI173
aI259
a(lp11
I465
aI594
aI310
aI21
atp12
aa(lp13
((lp14
I326
aI292
aI259
a(lp15
I465
aI408
aI147
aI436
atp16
aa(lp17
((lp18
I477
aI259
aI578
a(lp19
I465
aI594
aI52
aI462
atp20
aa(lp21
((lp22
I53
aI259
a(lp23
I465
aI594
aI574
aI41
atp24
aa(lp25
a(lp26
((lp27
I326
aI356
aI259
a(lp28
I465
aI594
aI178
aI540
atp29
aa(lp30
((lp31
I374
aI259
aI355
a(lp32
I465
aI594
aI333
aI2
atp33
aa(lp34
((lp35
I53
aI173
a(lp36
I465
aI594
aI240
aI130
atp37
aa(lp38
((lp39
I235
aI493
aI355
a(lp40
I465
aI274
aI179
aI363
atp41
aa(lp42
((lp43
I326
aI617
aI259
a(lp44
I465
aI594
aI489
aI336
atp45
aa(lp46
((lp47
I374
aI173
aI355
a(lp48
I465
aI2
aI464
aI418
atp49
aa(lp50
((lp51
I465
a(lp52
I594
aI312
aI46
atp53
aa(lp54
((lp55
I465
a(lp56
I339
aI103
aI116
atp57
aa(lp58
((lp59
I465
a(lp60
I594
aI209
atp61
aa(lp62
((lp63
I53
aI259
a(lp64
I465
aI594
aI526
aI574
atp65
aa(lp66
((lp67
I326
aI187
aI355
a(lp68
I465
aI28
aI128
aI333
atp69
aa(lp70
((lp71
I326
aI17
aI259
a(lp72
I465
aI266
aI333
aI202
atp73
aa(lp74
((lp75
I374
aI259
aI355
a(lp76
I465
aI594
aI526
aI202
atp77
aa(lp78
((lp79
I465
a(lp80
I594
aI363
aI378
atp81
aa(lp82
((lp83
I374
aI173
aI355
a(lp84
I465
aI466
aI433
aI594
atp85
aa(lp86
((lp87
I53
aI355
a(lp88
I465
aI594
aI580
aI462
atp89
aa(lp90
((lp91
I374
aI259
aI355
a(lp92
I465
aI594
aI404
aI526
atp93
aa(lp94
((lp95
I483
aI259
a(lp96
I465
aI594
aI108
aI178
atp97
aa(lp98
a(lp99
((lp100
I465
a(lp101
I310
aI147
atp102
aa(lp103
((lp104
I483
aI355
a(lp105
I465
aI202
aI504
aI490
atp106
aa(lp107
((lp108
I374
aI259
aI355
a(lp109
I465
aI562
aI90
aI147
atp110
aa(lp111
((lp112
I53
aI173
a(lp113
I465
aI594
aI80
aI132
atp114
aa(lp115
((lp116
I326
aI239
aI355
a(lp117
I465
aI594
aI499
aI239
atp118
aa(lp119
((lp120
I235
aI150
aI355
a(lp121
I465
aI255
aI293
aI150
atp122
aa(lp123
((lp124
I326
aI147
aI355
a(lp125
I465
aI443
aI440
aI594
atp126
aa(lp127
((lp128
I53
aI355
a(lp129
I465
aI116
aI526
aI383
atp130
aa(lp131
((lp132
I477
aI173
aI578
a(lp133
I465
aI310
aI147
atp134
aa(lp135
a(lp136
((lp137
I326
aI602
aI355
a(lp138
I465
aI312
aI64
aI594
atp139
aa(lp140
((lp141
I374
aI173
aI259
a(lp142
I465
aI594
aI99
aI612
atp143
aa(lp144
((lp145
I326
aI214
aI259
a(lp146
I465
aI594
aI526
aI418
atp147
aa(lp148
((lp149
I374
aI173
aI259
a(lp150
I465
aI116
aI383
aI150
atp151
aa(lp152
((lp153
I477
aI259
aI291
a(lp154
I465
aI540
aI376
aI312
atp155
aa(lp156
((lp157
I483
aI355
a(lp158
I465
aI594
aI23
aI412
atp159
aa(lp160
((lp161
I326
aI366
aI355
a(lp162
I465
aI116
aI574
aI531
atp163
aa(lp164
((lp165
I465
a(lp166
I99
aI594
aI544
atp167
aa(lp168
((lp169
I326
aI380
aI259
a(lp170
I465
aI594
aI499
aI462
atp171
aa(lp172
((lp173
I53
aI355
a(lp174
I465
aI594
aI549
aI247
atp175
aa(lp176
((lp177
I53
aI173
a(lp178
I465
aI594
aI574
aI462
atp179
aa(lp180
((lp181
I53
aI173
a(lp182
I465
aI147
aI99
aI614
atp183
aa(lp184
((lp185
I53
aI259
a(lp186
I465
aI594
aI363
aI178
atp187
aa(lp188
((lp189
I374
aI259
aI355
a(lp190
I465
aI594
aI99
aI531
atp191
aa(lp192
((lp193
I326
aI181
aI259
a(lp194
I465
aI594
aI24
aI46
atp195
aa(lp196
((lp197
I326
aI437
aI173
a(lp198
I465
aI594
aI383
aI8
atp199
aa(lp200
((lp201
I53
aI259
a(lp202
I465
aI499
aI116
aI211
atp203
aa(lp204
((lp205
I235
aI119
aI355
a(lp206
I465
aI594
aI340
aI119
atp207
aa(lp208
((lp209
I326
aI375
aI355
a(lp210
I465
aI574
aI499
aI594
atp211
aa(lp212
((lp213
I374
aI173
aI259
a(lp214
I465
aI116
aI499
aI178
atp215
aa(lp216
((lp217
I235
aI594
aI173
a(lp218
I465
aI594
aI383
aI375
atp219
aa(lp220
((lp221
I53
aI173
a(lp222
I465
aI594
aI574
aI531
atp223
aa(lp224
((lp225
I53
aI355
a(lp226
I465
aI363
aI116
aI46
atp227
aa(lp228
((lp229
I235
aI252
aI259
a(lp230
I465
aI99
aI400
aI365
atp231
aa(lp232
((lp233
I326
aI146
aI259
a(lp234
I465
aI116
aI526
aI32
atp235
aa(lp236
((lp237
I374
aI173
aI259
a(lp238
I465
aI147
aI352
aI297
atp239
aa(lp240
((lp241
I53
aI173
a(lp242
I465
aI594
aI312
aI8
atp243
aa(lp244
((lp245
I374
aI355
aI259
a(lp246
I465
aI540
aI312
aI284
atp247
aa(lp248
((lp249
I477
aI173
aI578
a(lp250
I465
aI2
aI594
aI591
atp251
aa(lp252
((lp253
I465
a(lp254
I399
aI383
aI99
atp255
aa(lp256
((lp257
I477
aI259
aI578
a(lp258
I465
aI33
aI571
atp259
aa(lp260
((lp261
I374
aI259
aI355
a(lp262
I465
aI231
aI587
aI594
atp263
aa(lp264
((lp265
I53
aI173
a(lp266
I465
aI594
aI340
aI104
atp267
aa(lp268
((lp269
I374
aI259
aI355
a(lp270
I465
aI99
aI544
aI594
atp271
aa(lp272
((lp273
I465
a(lp274
I594
aI143
aI574
atp275
aa(lp276
((lp277
I53
aI259
a(lp278
I465
aI116
aI202
aI247
atp279
aa(lp280
((lp281
I465
a(lp282
I116
aI240
aI130
atp283
aa(lp284
((lp285
I374
aI173
aI259
a(lp286
I465
aI588
aI434
aI594
atp287
aa(lp288
((lp289
I326
aI604
aI355
a(lp290
I465
aI283
aI72
aI241
atp291
aa(lp292
a(lp293
((lp294
I235
aI174
aI355
a(lp295
I465
aI202
aI526
aI594
atp296
aa(lp297
((lp298
I53
aI173
a(lp299
I465
aI594
aI213
aI178
atp300
aa(lp301
a(lp302
((lp303
I235
aI359
aI355
a(lp304
I465
aI612
aI523
aI281
atp305
aa(lp306
((lp307
I326
aI586
aI173
a(lp308
I465
aI147
aI99
aI462
atp309
aa(lp310
((lp311
I477
aI173
aI578
a(lp312
I465
aI534
aI463
aI116
atp313
aa(lp314
((lp315
I326
aI373
aI259
a(lp316
I465
aI458
aI58
aI418
atp317
aa(lp318
((lp319
I465
a(lp320
I594
aI383
aI2
atp321
aa(lp322
((lp323
I235
aI181
aI259
a(lp324
I465
aI594
aI14
aI574
atp325
aa(lp326
((lp327
I483
aI173
a(lp328
I465
aI349
aI58
aI418
atp329
aa(lp330
((lp331
I326
aI29
aI259
a(lp332
I465
aI594
aI312
aI46
atp333
aa(lp334
((lp335
I326
aI29
aI259
a(lp336
I465
aI594
aI312
aI46
atp337
aa(lp338
((lp339
I477
aI259
aI578
a(lp340
I465
aI512
aI209
aI208
atp341
aa(lp342
((lp343
I235
aI411
aI355
a(lp344
I465
aI594
aI340
aI411
atp345
aa(lp346
((lp347
I465
a(lp348
I594
aI99
aI150
atp349
aa(lp350
((lp351
I374
aI259
aI355
a(lp352
I465
aI116
aI189
aI8
atp353
aa(lp354
((lp355
I374
aI259
aI355
a(lp356
I465
aI594
aI99
aI362
atp357
aa(lp358
((lp359
I477
aI173
aI578
a(lp360
I465
aI594
aI2
aI70
atp361
aa(lp362
((lp363
I53
aI173
a(lp364
I465
aI594
aI363
aI150
atp365
aa(lp366
((lp367
I53
aI355
a(lp368
I465
aI116
aI247
aI468
atp369
aa(lp370
((lp371
I53
aI173
a(lp372
I465
aI396
aI434
aI452
atp373
aa(lp374
((lp375
I477
aI173
aI291
a(lp376
I465
aI610
aI312
aI540
atp377
aa(lp378
((lp379
I465
a(lp380
I594
aI209
aI160
atp381
aa(lp382
((lp383
I465
a(lp384
I594
aI612
aI383
atp385
aa(lp386
a(lp387
a(lp388
a(lp389
((lp390
I465
a(lp391
I395
aI116
aI310
atp392
aa(lp393
((lp394
I374
aI173
aI259
a(lp395
I465
aI116
aI114
aI247
atp396
aa(lp397
((lp398
I326
aI418
aI173
a(lp399
I465
aI202
atp400
aa(lp401
((lp402
I465
a(lp403
I60
aI594
aI138
atp404
aa(lp405
((lp406
I374
aI173
aI355
a(lp407
I465
aI363
aI177
aI28
atp408
aa(lp409
((lp410
I53
aI173
a(lp411
I465
aI202
aI307
atp412
aa(lp413
((lp414
I374
aI173
aI355
a(lp415
I465
aI584
aI274
aI526
atp416
aa(lp417
a(lp418
((lp419
I53
aI173
a(lp420
I465
aI594
aI202
aI363
atp421
aa(lp422
((lp423
I465
a(lp424
I255
aI293
aI191
atp425
aa(lp426
((lp427
I465
a(lp428
I594
aI383
aI99
atp429
aa(lp430
((lp431
I53
aI355
a(lp432
I465
aI408
aI147
aI52
atp433
aa(lp434
a(lp435
((lp436
I53
aI259
a(lp437
I465
aI612
aI507
aI320
atp438
aa(lp439
((lp440
I477
aI355
aI578
a(lp441
I465
aI116
aI165
aI587
atp442
aa(lp443
((lp444
I53
aI355
a(lp445
I465
aI274
aI540
aI222
atp446
aa(lp447
((lp448
I465
a(lp449
I116
aI339
aI103
atp450
aa(lp451
((lp452
I465
a(lp453
I464
aI418
aI60
atp454
aa(lp455
((lp456
I374
aI173
aI355
a(lp457
I465
aI378
aI530
aI594
atp458
aa(lp459
a(lp460
((lp461
I477
aI259
aI578
a(lp462
I465
aI594
aI202
aI2
atp463
aa(lp464
((lp465
I326
aI502
aI259
a(lp466
I465
aI232
aI466
atp467
aa(lp468
((lp469
I326
aI550
aI173
a(lp470
I465
aI147
aI202
aI584
atp471
aa(lp472
((lp473
I326
aI362
aI355
a(lp474
I465
aI594
aI508
aI362
atp475
aa(lp476
((lp477
I326
aI205
aI173
a(lp478
I465
aI545
aI363
aI594
atp479
aa(lp480
((lp481
I53
aI173
a(lp482
I465
aI594
aI312
aI362
atp483
aa(lp484
((lp485
I374
aI259
aI355
a(lp486
I465
aI98
aI443
aI116
atp487
aa(lp488
((lp489
I477
aI355
aI578
a(lp490
I465
aI594
aI333
aI591
atp491
aa(lp492
((lp493
I477
aI173
aI578
a(lp494
I465
aI8
aI383
aI417
atp495
aa(lp496
((lp497
I235
aI140
aI173
a(lp498
I465
aI594
aI333
aI540
atp499
aa(lp500
((lp501
I235
aI379
aI355
a(lp502
I465
aI594
aI615
aI379
atp503
aa(lp504
((lp505
I326
aI146
aI259
a(lp506
I465
aI116
aI526
aI32
atp507
aa(lp508
((lp509
I374
aI173
aI259
a(lp510
I465
aI147
aI463
aI328
atp511
aa(lp512
((lp513
I477
aI259
aI291
a(lp514
I465
aI594
aI39
aI312
atp515
aa(lp516
((lp517
I235
aI463
aI173
a(lp518
I465
aI601
aI363
aI339
atp519
aa(lp520
((lp521
I235
aI359
aI259
a(lp522
I465
aI594
aI496
aI201
atp523
aa(lp524
((lp525
I374
aI173
aI259
a(lp526
I465
aI333
aI594
aI202
atp527
aa(lp528
((lp529
I477
aI259
aI291
a(lp530
I465
aI527
aI367
aI132
atp531
aa(lp532
((lp533
I374
aI173
aI259
a(lp534
I465
aI99
aI383
aI399
atp535
aa(lp536
((lp537
I374
aI173
aI355
a(lp538
I465
aI147
aI61
aI569
atp539
aa(lp540
((lp541
I477
aI173
aI578
a(lp542
I465
aI594
aI99
aI358
atp543
aa(lp544
((lp545
I477
aI259
aI578
a(lp546
I465
aI594
aI333
aI239
atp547
aa(lp548
a(lp549
((lp550
I374
aI259
aI355
a(lp551
I465
aI314
aI2
aI620
atp552
aa(lp553
((lp554
I465
a(lp555
I147
aI383
aI472
atp556
aa(lp557
((lp558
I477
aI355
aI578
a(lp559
I465
aI411
aI557
aI594
atp560
aa(lp561
((lp562
I235
aI447
aI355
a(lp563
I465
aI594
aI526
aI531
atp564
aa(lp565
((lp566
I477
aI259
aI578
a(lp567
I465
aI147
aI178
aI531
atp568
aa(lp569
((lp570
I483
aI355
a(lp571
I465
aI60
aI594
aI138
atp572
aa(lp573
((lp574
I374
aI355
aI259
a(lp575
I465
aI116
aI526
aI226
atp576
aa(lp577
((lp578
I53
aI355
a(lp579
I465
aI594
aI80
aI99
atp580
aa(lp581
((lp582
I465
a(lp583
I594
aI2
atp584
aa(lp585
((lp586
I326
aI505
aI355
a(lp587
I465
aI171
aI154
aI7
atp588
aa(lp589
((lp590
I477
aI355
aI578
a(lp591
I465
aI32
aI261
aI116
atp592
aa(lp593
((lp594
I326
aI245
aI259
a(lp595
I465
aI150
aI2
aI594
atp596
aa(lp597
((lp598
I465
a(lp599
I594
aI574
aI77
atp600
aa(lp601
((lp602
I465
a(lp603
I594
aI38
aI87
atp604
aa(lp605
((lp606
I235
aI473
aI355
a(lp607
I465
aI594
aI312
aI573
atp608
aa(lp609
((lp610
I465
a(lp611
I103
aI178
aI594
atp612
aa(lp613
((lp614
I483
aI259
a(lp615
I465
aI28
aI618
aI295
atp616
aa(lp617
((lp618
I374
aI173
aI355
a(lp619
I465
aI147
aI363
aI612
atp620
aa(lp621
((lp622
I326
aI607
aI355
a(lp623
I465
aI551
aI520
aI581
atp624
aa(lp625
((lp626
I53
aI173
a(lp627
I465
aI153
aI213
aI429
atp628
aa(lp629
a(lp630
((lp631
I483
aI259
a(lp632
I465
aI594
aI42
aI363
atp633
aa(lp634
((lp635
I374
aI173
aI355
a(lp636
I465
aI594
aI2
aI333
atp637
aa(lp638
((lp639
I374
aI173
aI259
a(lp640
I465
aI383
aI147
atp641
aa(lp642
((lp643
I53
aI259
a(lp644
I465
aI594
aI555
aI130
atp645
aa(lp646
a(lp647
((lp648
I477
aI173
aI578
a(lp649
I465
aI594
aI44
aI591
atp650
aa(lp651
((lp652
I477
aI355
aI578
a(lp653
I465
aI594
aI526
aI462
atp654
aa(lp655
((lp656
I465
a(lp657
I147
aI384
aI203
atp658
aa(lp659
((lp660
I235
aI325
aI173
a(lp661
I465
aI363
aI102
aI594
atp662
aa(lp663
a(lp664
((lp665
I326
aI146
aI259
a(lp666
I465
aI612
aI523
aI560
atp667
aa(lp668
((lp669
I235
aI359
aI355
a(lp670
I465
aI147
aI90
aI591
atp671
aa(lp672
a(lp673
((lp674
I53
aI259
a(lp675
I465
aI153
aI363
aI429
atp676
aa(lp677
((lp678
I326
aI505
aI355
a(lp679
I465
aI594
aI99
aI150
atp680
aa(lp681
((lp682
I53
aI259
a(lp683
I465
aI231
aI594
aI212
atp684
aa(lp685
((lp686
I235
aI471
aI259
a(lp687
I465
aI2
aI594
aI418
atp688
aa(lp689
((lp690
I477
aI355
aI578
a(lp691
I465
aI594
aI363
aI362
atp692
aa(lp693
((lp694
I374
aI173
aI355
a(lp695
I465
aI594
aI2
aI333
atp696
aa(lp697
((lp698
I53
aI355
a(lp699
I465
aI534
aI463
aI594
atp700
aa(lp701
((lp702
I465
a(lp703
I594
aI574
aI150
atp704
aa(lp705
a(lp706
((lp707
I477
aI259
aI578
a(lp708
I465
aI594
aI333
aI178
atp709
aa(lp710
((lp711
I235
aI303
aI259
a(lp712
I465
aI594
aI190
aI34
atp713
aa(lp714
((lp715
I326
aI375
aI259
a(lp716
I465
aI594
aI312
aI336
atp717
aa(lp718
a(lp719
((lp720
I465
a(lp721
I150
aI2
aI594
atp722
aa(lp723
((lp724
I477
aI173
aI578
a(lp725
I465
aI418
aI517
aI390
atp726
aa(lp727
((lp728
I53
aI173
a(lp729
I465
aI99
aI143
aI536
atp730
aa(lp731
((lp732
I477
aI355
aI291
a(lp733
I465
aI512
aI121
aI208
atp734
aa(lp735
a(lp736
((lp737
I374
aI173
aI355
a(lp738
I465
aI86
aI312
aI299
atp739
aa(lp740
((lp741
I477
aI173
aI578
a(lp742
I465
aI499
aI594
aI584
atp743
aa(lp744
((lp745
I326
aI604
aI355
a(lp746
I465
aI283
aI72
aI241
atp747
aa(lp748
((lp749
I53
aI259
a(lp750
I465
aI594
aI2
aI138
atp751
aa(lp752
((lp753
I465
a(lp754
I363
aI290
aI116
atp755
aa(lp756
((lp757
I477
aI259
aI578
a(lp758
I465
aI281
aI268
aI612
atp759
aa(lp760
((lp761
I53
aI173
a(lp762
I465
aI462
aI209
aI306
atp763
aa(lp764
((lp765
I374
aI259
aI355
a(lp766
I465
aI286
aI202
aI143
atp767
aa(lp768
((lp769
I235
aI174
aI259
a(lp770
I465
aI103
aI178
aI594
atp771
aa(lp772
((lp773
I235
aI568
aI259
a(lp774
I465
aI285
aI568
aI10
atp775
aa(lp776
((lp777
I483
aI259
a(lp778
I465
aI28
aI112
aI333
atp779
aa(lp780
((lp781
I374
aI173
aI355
a(lp782
I465
aI383
aI399
aI99
atp783
aa(lp784
((lp785
I326
aI576
aI355
a(lp786
I465
aI594
aI143
aI495
atp787
aa(lp788
((lp789
I326
aI120
aI355
a(lp790
I465
aI143
aI99
aI594
atp791
aa(lp792
((lp793
I326
aI323
aI355
a(lp794
I465
aI594
aI559
aI363
atp795
aa(lp796
((lp797
I465
a(lp798
I117
aI363
aI37
atp799
aa(lp800
((lp801
I374
aI173
aI355
a(lp802
I465
aI625
aI66
aI104
atp803
aa(lp804
((lp805
I477
aI173
aI578
a(lp806
I465
aI434
aI103
aI147
atp807
aa(lp808
((lp809
I326
aI445
aI259
a(lp810
I465
aI594
aI8
aI526
atp811
aa(lp812
((lp813
I477
aI173
aI578
a(lp814
I465
aI147
aI46
aI463
atp815
aa(lp816
a(lp817
((lp818
I477
aI173
aI578
a(lp819
I465
aI339
aI363
aI429
atp820
aa(lp821
((lp822
I374
aI259
aI355
a(lp823
I465
aI594
aI450
aI540
atp824
aa(lp825
((lp826
I465
a(lp827
I349
aI312
aI612
atp828
aa(lp829
((lp830
I326
aI323
aI355
a(lp831
I465
aI594
aI559
aI363
atp832
aa(lp833
a(lp834
((lp835
I483
aI355
a(lp836
I465
aI586
aI558
aI345
atp837
aa(lp838
((lp839
I326
aI617
aI259
a(lp840
I465
aI594
aI489
aI336
atp841
aa(lp842
((lp843
I477
aI355
aI578
a(lp844
I465
aI594
aI333
aI362
atp845
aa(lp846
((lp847
I465
a(lp848
I624
aI612
aI147
atp849
aa(lp850
((lp851
I477
aI259
aI578
a(lp852
I465
aI594
aI143
aI434
atp853
aa(lp854
((lp855
I374
aI259
aI355
a(lp856
I465
aI116
aI227
aI611
atp857
aa(lp858
((lp859
I235
aI584
aI355
a(lp860
I465
aI594
aI312
aI584
atp861
aa(lp862
((lp863
I477
aI259
aI578
a(lp864
I465
aI594
aI209
aI160
atp865
aa(lp866
((lp867
I374
aI173
aI259
a(lp868
I465
aI594
aI574
aI150
atp869
aa(lp870
((lp871
I477
aI259
aI578
a(lp872
I465
aI28
aI363
aI410
atp873
aa(lp874
((lp875
I477
aI259
aI578
a(lp876
I465
aI594
aI448
aI301
atp877
aa(lp878
((lp879
I53
aI355
a(lp880
I465
aI594
aI383
aI46
atp881
aa(lp882
((lp883
I465
a(lp884
I103
aI584
aI100
atp885
aa(lp886
((lp887
I326
aI1
aI355
a(lp888
I465
aI147
aI143
aI210
atp889
aa(lp890
((lp891
I374
aI173
aI259
a(lp892
I465
aI150
aI19
aI594
atp893
aa(lp894
((lp895
I235
aI428
aI355
a(lp896
I465
aI194
aI360
aI363
atp897
aa(lp898
((lp899
I465
a(lp900
I116
aI21
aI247
atp901
aa(lp902
((lp903
I53
aI259
a(lp904
I465
aI574
aI629
aI116
atp905
aa(lp906
((lp907
I374
aI259
aI355
a(lp908
I465
aI103
aI147
aI513
atp909
aa(lp910
((lp911
I465
a(lp912
I594
aI622
aI2
atp913
aa(lp914
((lp915
I465
a(lp916
I266
aI47
aI202
atp917
aa(lp918
((lp919
I235
aI206
aI355
a(lp920
I465
aI594
aI202
aI597
atp921
aa(lp922
((lp923
I326
aI521
aI355
a(lp924
I465
aI147
aI335
aI339
atp925
aa(lp926
((lp927
I465
a(lp928
I594
aI574
aI612
atp929
aa(lp930
((lp931
I235
aI174
aI355
a(lp932
I465
aI202
aI526
aI594
atp933
aa(lp934
((lp935
I483
aI259
a(lp936
I465
aI147
aI335
aI569
atp937
aa(lp938
((lp939
I465
a(lp940
I116
aI226
aI526
atp941
aa(lp942
((lp943
I326
aI575
aI355
a(lp944
I465
aI612
aI368
aI401
atp945
aa(lp946
a(lp947
((lp948
I374
aI173
aI259
a(lp949
I465
aI594
aI540
aI97
atp950
aa(lp951
a(lp952
((lp953
I465
a(lp954
I116
aI130
atp955
aa(lp956
((lp957
I477
aI173
aI578
a(lp958
I465
aI594
aI333
aI210
atp959
aa(lp960
((lp961
I465
a(lp962
I594
aI574
aI339
atp963
aa(lp964
((lp965
I374
aI173
aI259
a(lp966
I465
aI147
aI277
aI369
atp967
aa(lp968
((lp969
I374
aI173
aI259
a(lp970
I465
aI526
aI202
aI594
atp971
aa(lp972
((lp973
I374
aI259
aI355
a(lp974
I465
aI147
aI99
aI358
atp975
aa(lp976
((lp977
I465
a(lp978
I349
aI312
aI612
atp979
aa(lp980
((lp981
I465
a(lp982
I594
aI580
aI462
atp983
aa(lp984
((lp985
I326
aI81
aI355
a(lp986
I465
aI464
aI418
aI60
atp987
aa(lp988
a(lp989
((lp990
I465
a(lp991
I133
aI500
aI147
atp992
aa(lp993
((lp994
I477
aI355
aI578
a(lp995
I465
aI594
aI526
aI612
atp996
aa(lp997
((lp998
I483
aI259
a(lp999
I465
aI383
aI619
aI147
atp1000
aa(lp1001
((lp1002
I483
aI259
a(lp1003
I465
aI594
aI246
aI8
atp1004
aa(lp1005
((lp1006
I477
aI355
aI578
a(lp1007
I465
aI594
aI363
aI239
atp1008
aa(lp1009
((lp1010
I326
aI375
aI259
a(lp1011
I465
aI594
aI2
aI99
atp1012
aa(lp1013
((lp1014
I53
aI173
a(lp1015
I465
aI594
aI526
aI363
atp1016
aa(lp1017
((lp1018
I53
aI355
a(lp1019
I465
aI594
aI505
aI312
atp1020
aa(lp1021
((lp1022
I465
a(lp1023
I594
aI312
aI434
atp1024
aa(lp1025
((lp1026
I374
aI173
aI355
a(lp1027
I465
aI147
aI591
aI436
atp1028
aa(lp1029
((lp1030
I465
a(lp1031
I594
aI430
aI99
atp1032
aa(lp1033
((lp1034
I465
a(lp1035
I594
aI574
aI270
atp1036
aa(lp1037
((lp1038
I477
aI259
aI578
a(lp1039
I465
aI594
aI247
aI363
atp1040
aa(lp1041
((lp1042
I477
aI355
aI578
a(lp1043
I465
aI594
aI2
aI210
atp1044
aa(lp1045
((lp1046
I374
aI173
aI355
a(lp1047
I465
aI594
aI396
aI466
atp1048
aa(lp1049
((lp1050
I374
aI173
aI355
a(lp1051
I465
aI594
aI237
aI8
atp1052
aa(lp1053
((lp1054
I465
a(lp1055
I463
aI116
aI178
atp1056
aa(lp1057
((lp1058
I235
aI359
aI259
a(lp1059
I465
aI594
aI496
aI201
atp1060
aa(lp1061
a(lp1062
((lp1063
I235
aI359
aI355
a(lp1064
I465
aI540
aI594
aI97
atp1065
aa(lp1066
((lp1067
I374
aI173
aI355
a(lp1068
I465
aI594
aI209
aI459
atp1069
aa(lp1070
((lp1071
I235
aI535
aI355
a(lp1072
I465
aI594
aI21
aI150
atp1073
aa(lp1074
((lp1075
I477
aI259
aI578
a(lp1076
I465
aI594
aI495
aI462
atp1077
aa(lp1078
((lp1079
I374
aI173
aI259
a(lp1080
I465
aI594
aI2
atp1081
aa(lp1082
((lp1083
I465
a(lp1084
I594
aI457
atp1085
aa(lp1086
((lp1087
I483
aI355
a(lp1088
I465
aI171
aI154
aI308
atp1089
aa(lp1090
((lp1091
I53
aI259
a(lp1092
I465
aI116
aI574
aI462
atp1093
aa(lp1094
((lp1095
I465
a(lp1096
I2
aI466
atp1097
aa(lp1098
((lp1099
I477
aI259
aI578
a(lp1100
I465
aI277
aI147
aI316
atp1101
aa(lp1102
((lp1103
I465
a(lp1104
I116
aI226
aI526
atp1105
aa(lp1106
((lp1107
I374
aI173
aI355
a(lp1108
I465
aI594
aI499
aI574
atp1109
aa(lp1110
a(lp1111
((lp1112
I53
aI173
a(lp1113
I465
aI594
aI574
aI531
atp1114
aa(lp1115
((lp1116
I326
aI146
aI355
a(lp1117
I465
aI396
aI434
aI594
atp1118
aa(lp1119
((lp1120
I374
aI173
aI355
a(lp1121
I465
aI594
aI102
aI363
atp1122
aa(lp1123
((lp1124
I477
aI173
aI578
a(lp1125
I465
aI594
aI60
aI297
atp1126
aa(lp1127
((lp1128
I374
aI259
aI355
a(lp1129
I465
aI458
aI382
aI45
atp1130
aa(lp1131
((lp1132
I374
aI173
aI355
a(lp1133
I465
aI378
aI363
aI594
atp1134
aa(lp1135
((lp1136
I374
aI173
aI355
a(lp1137
I465
aI531
aI574
aI594
atp1138
aa(lp1139
((lp1140
I53
aI173
a(lp1141
I465
aI147
aI587
aI194
atp1142
aa(lp1143
((lp1144
I465
a(lp1145
I594
aI491
aI363
atp1146
aa(lp1147
((lp1148
I483
aI355
a(lp1149
I465
aI217
aI611
aI227
atp1150
aa(lp1151
a(lp1152
((lp1153
I477
aI355
aI578
a(lp1154
I465
aI594
aI574
aI612
atp1155
aa(lp1156
((lp1157
I235
aI239
aI259
a(lp1158
I465
aI505
aI52
aI74
atp1159
aa(lp1160
((lp1161
I477
aI259
aI291
a(lp1162
I465
aI171
aI154
aI556
atp1163
aa(lp1164
((lp1165
I235
aI493
aI259
a(lp1166
I465
aI594
aI159
aI443
atp1167
aa(lp1168
((lp1169
I465
a(lp1170
I463
aI147
aI328
atp1171
aa(lp1172
((lp1173
I326
aI434
aI355
a(lp1174
I465
aI147
aI99
aI434
atp1175
aa(lp1176
((lp1177
I374
aI173
aI355
a(lp1178
I465
aI466
aI433
aI594
atp1179
aa(lp1180
((lp1181
I477
aI173
aI578
a(lp1182
I465
aI594
aI232
aI43
atp1183
aa(lp1184
((lp1185
I53
aI259
a(lp1186
I465
aI594
aI249
aI210
atp1187
aa(lp1188
((lp1189
I53
aI259
a(lp1190
I465
aI594
aI526
aI540
atp1191
aa(lp1192
((lp1193
I235
aI594
aI173
a(lp1194
I465
aI594
aI526
aI267
atp1195
aa(lp1196
((lp1197
I374
aI173
aI259
a(lp1198
I465
aI285
aI143
aI377
atp1199
aa(lp1200
((lp1201
I235
aI317
aI355
a(lp1202
I465
aI420
aI149
aI294
atp1203
aa(lp1204
((lp1205
I235
aI311
aI259
a(lp1206
I465
aI594
aI311
aI301
atp1207
aa(lp1208
((lp1209
I465
a(lp1210
I147
aI383
aI243
atp1211
aa(lp1212
((lp1213
I235
aI140
aI173
a(lp1214
I465
aI594
aI333
aI540
atp1215
aa(lp1216
a(lp1217
((lp1218
I465
a(lp1219
I392
aI147
aI350
atp1220
aa(lp1221
a(lp1222
((lp1223
I374
aI173
aI355
a(lp1224
I465
aI147
aI232
aI43
atp1225
aa(lp1226
((lp1227
I374
aI173
aI259
a(lp1228
I465
aI116
aI395
aI310
atp1229
aa(lp1230
((lp1231
I477
aI355
aI578
a(lp1232
I465
aI526
aI321
aI573
atp1233
aa(lp1234
((lp1235
I374
aI259
aI355
a(lp1236
I465
aI5
aI192
aI116
atp1237
aa(lp1238
((lp1239
I465
a(lp1240
I594
aI526
aI312
atp1241
aa(lp1242
((lp1243
I53
aI355
a(lp1244
I465
aI499
aI2
aI594
atp1245
aa(lp1246
((lp1247
I465
a(lp1248
I499
aI2
aI594
atp1249
aa(lp1250
((lp1251
I465
a(lp1252
I280
aI587
aI375
atp1253
aa(lp1254
((lp1255
I235
aI219
aI173
a(lp1256
I465
aI594
aI312
aI540
atp1257
aa(lp1258
((lp1259
I326
aI232
aI355
a(lp1260
I465
aI339
aI213
aI429
atp1261
aa(lp1262
((lp1263
I483
aI173
a(lp1264
I465
aI349
aI58
aI418
atp1265
aa(lp1266
((lp1267
I53
aI173
a(lp1268
I465
aI594
aI240
aI130
atp1269
aa(lp1270
((lp1271
I477
aI355
aI578
a(lp1272
I465
aI147
aI52
aI46
atp1273
aa(lp1274
((lp1275
I374
aI173
aI259
a(lp1276
I465
aI360
aI194
aI363
atp1277
aa(lp1278
((lp1279
I235
aI263
aI259
a(lp1280
I465
aI8
aI116
aI189
atp1281
aa(lp1282
((lp1283
I374
aI355
aI259
a(lp1284
I465
aI594
aI21
aI311
atp1285
aa(lp1286
((lp1287
I477
aI173
aI578
a(lp1288
I465
aI594
aI52
aI46
atp1289
aa(lp1290
((lp1291
I477
aI259
aI578
a(lp1292
I465
aI594
aI407
aI124
atp1293
aa(lp1294
((lp1295
I326
aI501
aI355
a(lp1296
I465
aI8
aI237
aI594
atp1297
aa(lp1298
((lp1299
I235
aI178
aI355
a(lp1300
I465
aI594
aI574
aI178
atp1301
aa(lp1302
((lp1303
I477
aI173
aI578
a(lp1304
I465
aI333
aI2
aI594
atp1305
aa(lp1306
((lp1307
I53
aI173
a(lp1308
I465
aI594
aI227
aI2
atp1309
aa(lp1310
((lp1311
I374
aI259
aI355
a(lp1312
I465
aI147
aI383
aI621
atp1313
aa(lp1314
((lp1315
I374
aI173
aI259
a(lp1316
I465
aI594
aI210
aI574
atp1317
aa(lp1318
((lp1319
I53
aI259
a(lp1320
I465
aI594
aI421
aI614
atp1321
aa(lp1322
a(lp1323
((lp1324
I483
aI173
a(lp1325
I465
aI282
aI333
aI574
atp1326
aa(lp1327
((lp1328
I326
aI147
aI355
a(lp1329
I465
aI4
aI557
aI147
atp1330
aa(lp1331
((lp1332
I477
aI173
aI578
a(lp1333
I465
aI499
aI594
aI584
atp1334
aa(lp1335
((lp1336
I477
aI259
aI578
a(lp1337
I465
aI274
aI184
aI363
atp1338
aa(lp1339
a(lp1340
((lp1341
I235
aI40
aI355
a(lp1342
I465
aI594
aI312
aI605
atp1343
aa(lp1344
((lp1345
I326
aI49
aI355
a(lp1346
I465
aI116
aI526
aI310
atp1347
aa(lp1348
((lp1349
I53
aI173
a(lp1350
I465
aI594
aI526
aI267
atp1351
aa(lp1352
((lp1353
I483
aI355
a(lp1354
I465
aI202
aI402
aI353
atp1355
aa(lp1356
((lp1357
I465
a(lp1358
I36
aI28
aI330
atp1359
aa(lp1360
((lp1361
I465
a(lp1362
I202
aI307
atp1363
aa(lp1364
((lp1365
I53
aI173
a(lp1366
I465
aI2
aI434
aI594
atp1367
aa(lp1368
a(lp1369
((lp1370
I374
aI259
aI355
a(lp1371
I465
aI624
aI418
aI422
atp1372
aa(lp1373
((lp1374
I374
aI259
aI355
a(lp1375
I465
aI360
aI363
aI312
atp1376
aa(lp1377
((lp1378
I465
a(lp1379
I383
aI147
aI466
atp1380
aa(lp1381
((lp1382
I235
aI333
aI173
a(lp1383
I465
aI333
aI444
aI104
atp1384
aa(lp1385
((lp1386
I235
aI344
aI259
a(lp1387
I465
aI594
aI333
aI614
atp1388
aa(lp1389
a(lp1390
((lp1391
I53
aI259
a(lp1392
I465
aI143
aI594
aI36
atp1393
aa(lp1394
((lp1395
I235
aI375
aI259
a(lp1396
I465
aI628
aI360
aI194
atp1397
aa(lp1398
((lp1399
I53
aI173
a(lp1400
I465
aI594
aI340
aI104
atp1401
aa(lp1402
((lp1403
I326
aI147
aI173
a(lp1404
I465
aI147
aI383
aI21
atp1405
aa(lp1406
((lp1407
I53
aI173
a(lp1408
I465
aI594
aI312
aI362
atp1409
aa(lp1410
((lp1411
I483
aI355
a(lp1412
I465
aI558
aI363
aI50
atp1413
aa(lp1414
((lp1415
I477
aI173
aI578
a(lp1416
I465
aI147
aI202
aI356
atp1417
aa(lp1418
((lp1419
I465
a(lp1420
I99
aI143
aI536
atp1421
aa(lp1422
((lp1423
I483
aI355
a(lp1424
I465
aI464
aI418
aI414
atp1425
aa(lp1426
((lp1427
I326
aI375
aI259
a(lp1428
I465
aI594
aI499
aI362
atp1429
aa(lp1430
((lp1431
I374
aI259
aI355
a(lp1432
I465
aI562
aI90
aI147
atp1433
aa(lp1434
((lp1435
I235
aI268
aI173
a(lp1436
I465
aI268
aI444
aI104
atp1437
aa(lp1438
((lp1439
I477
aI259
aI578
a(lp1440
I465
aI594
aI574
aI104
atp1441
aa(lp1442
((lp1443
I483
aI355
a(lp1444
I465
aI594
aI178
aI93
atp1445
aa(lp1446
((lp1447
I477
aI355
aI578
a(lp1448
I465
aI349
aI58
aI612
atp1449
aa(lp1450
((lp1451
I53
aI173
a(lp1452
I465
aI147
aI198
aI531
atp1453
aa(lp1454
((lp1455
I53
aI355
a(lp1456
I465
aI594
aI496
aI443
atp1457
aa(lp1458
((lp1459
I374
aI173
aI355
a(lp1460
I465
aI378
aI530
aI594
atp1461
aa(lp1462
((lp1463
I53
aI259
a(lp1464
I465
aI594
aI202
aI150
atp1465
aa(lp1466
((lp1467
I53
aI173
a(lp1468
I465
aI594
aI153
aI309
atp1469
aa(lp1470
((lp1471
I477
aI173
aI291
a(lp1472
I465
aI169
aI594
aI513
atp1473
aa(lp1474
((lp1475
I53
aI355
a(lp1476
I465
aI594
aI499
aI239
atp1477
aa(lp1478
((lp1479
I326
aI445
aI259
a(lp1480
I465
aI285
aI463
aI10
atp1481
aa(lp1482
((lp1483
I235
aI418
aI173
a(lp1484
I465
aI594
aI526
aI150
atp1485
aa(lp1486
((lp1487
I326
aI380
aI259
a(lp1488
I465
aI540
aI284
aI312
atp1489
aa(lp1490
((lp1491
I477
aI355
aI578
a(lp1492
I465
aI383
aI612
aI594
atp1493
aa(lp1494
((lp1495
I465
a(lp1496
I594
aI202
aI391
atp1497
aa(lp1498
((lp1499
I53
aI173
a(lp1500
I465
aI594
aI312
aI362
atp1501
aa(lp1502
((lp1503
I477
aI173
aI291
a(lp1504
I465
aI564
aI363
aI312
atp1505
aa(lp1506
((lp1507
I477
aI173
aI578
a(lp1508
I465
aI594
aI333
atp1509
aa(lp1510
((lp1511
I374
aI173
aI355
a(lp1512
I465
aI417
aI383
aI8
atp1513
aa(lp1514
((lp1515
I326
aI163
aI355
a(lp1516
I465
aI458
aI382
aI418
atp1517
aa(lp1518
((lp1519
I477
aI173
aI578
a(lp1520
I465
aI404
aI261
aI18
atp1521
aa(lp1522
((lp1523
I326
aI37
aI259
a(lp1524
I465
aI333
aI594
aI104
atp1525
aa(lp1526
((lp1527
I326
aI546
aI259
a(lp1528
I465
aI594
aI363
aI378
atp1529
aa(lp1530
((lp1531
I326
aI604
aI355
a(lp1532
I465
aI594
aI202
aI8
atp1533
aa(lp1534
((lp1535
I53
aI355
a(lp1536
I465
aI178
aI463
aI594
atp1537
aa(lp1538
((lp1539
I477
aI259
aI578
a(lp1540
I465
aI285
aI99
aI10
atp1541
aa(lp1542
((lp1543
I465
a(lp1544
I75
aI574
aI77
atp1545
aa(lp1546
((lp1547
I53
aI259
a(lp1548
I465
aI28
aI213
aI178
atp1549
aa(lp1550
((lp1551
I235
aI375
aI259
a(lp1552
I465
aI436
aI115
aI481
atp1553
aa(lp1554
((lp1555
I235
aI594
aI173
a(lp1556
I465
aI594
aI247
aI310
atp1557
aa(lp1558
((lp1559
I374
aI259
aI355
a(lp1560
I465
aI594
aI222
aI540
atp1561
aa(lp1562
((lp1563
I374
aI173
aI355
a(lp1564
I465
aI399
aI383
aI99
atp1565
aa(lp1566
((lp1567
I53
aI259
a(lp1568
I465
aI594
aI249
aI210
atp1569
aa(lp1570
((lp1571
I374
aI173
aI355
a(lp1572
I465
aI2
aI464
aI418
atp1573
aa(lp1574
((lp1575
I374
aI259
aI355
a(lp1576
I465
aI594
aI526
aI8
atp1577
aa(lp1578
((lp1579
I374
aI173
aI355
a(lp1580
I465
aI431
aI466
aI594
atp1581
aa(lp1582
((lp1583
I53
aI173
a(lp1584
I465
aI52
aI115
aI285
atp1585
aa(lp1586
a(lp1587
((lp1588
I374
aI173
aI259
a(lp1589
I465
aI594
aI310
aI21
atp1590
aa(lp1591
((lp1592
I477
aI173
aI578
a(lp1593
I465
aI273
aI594
aI130
atp1594
aa(lp1595
((lp1596
I326
aI103
aI259
a(lp1597
I465
aI147
aI333
aI403
atp1598
aa(lp1599
((lp1600
I477
aI259
aI291
a(lp1601
I465
aI33
aI258
atp1602
aa(lp1603
((lp1604
I53
aI355
a(lp1605
I465
aI594
aI209
aI339
atp1606
aa(lp1607
((lp1608
I374
aI355
aI259
a(lp1609
I465
aI5
aI192
aI116
atp1610
aa(lp1611
((lp1612
I235
aI199
aI259
a(lp1613
I465
aI594
aI529
aI301
atp1614
aa(lp1615
((lp1616
I465
a(lp1617
I531
aI574
aI594
atp1618
aa(lp1619
((lp1620
I235
aI257
aI259
a(lp1621
I465
aI574
aI116
aI247
atp1622
aa(lp1623
((lp1624
I235
aI176
aI259
a(lp1625
I465
aI468
aI176
aI147
atp1626
aa(lp1627
((lp1628
I326
aI49
aI355
a(lp1629
I465
aI455
aI537
aI123
atp1630
aa(lp1631
((lp1632
I483
aI259
a(lp1633
I465
aI612
aI57
aI401
atp1634
aa(lp1635
((lp1636
I374
aI173
aI259
a(lp1637
I465
aI594
aI2
atp1638
aa(lp1639
a(lp1640
((lp1641
I235
aI110
aI173
a(lp1642
I465
aI594
aI143
aI377
atp1643
aa(lp1644
((lp1645
I326
aI380
aI355
a(lp1646
I465
aI28
aI209
aI267
atp1647
aa(lp1648
((lp1649
I235
aI204
aI259
a(lp1650
I465
aI612
aI368
aI89
atp1651
aa(lp1652
((lp1653
I374
aI259
aI355
a(lp1654
I465
aI453
aI594
aI273
atp1655
aa(lp1656
((lp1657
I374
aI259
aI355
a(lp1658
I465
aI86
aI299
aI312
atp1659
aa(lp1660
((lp1661
I465
a(lp1662
I463
aI594
aI597
atp1663
aa(lp1664
((lp1665
I477
aI259
aI578
a(lp1666
I465
aI209
aI389
aI594
atp1667
aa(lp1668
((lp1669
I326
aI340
aI259
a(lp1670
I465
aI147
aI499
aI470
atp1671
aa(lp1672
((lp1673
I477
aI173
aI578
a(lp1674
I465
aI333
aI2
aI594
atp1675
aa(lp1676
((lp1677
I374
aI173
aI355
a(lp1678
I465
aI614
aI68
aI572
atp1679
aa(lp1680
((lp1681
I235
aI327
aI259
a(lp1682
I465
aI99
aI147
aI544
atp1683
aa(lp1684
((lp1685
I326
aI445
aI355
a(lp1686
I465
aI283
aI366
aI585
atp1687
aa(lp1688
((lp1689
I53
aI259
a(lp1690
I465
aI594
aI333
aI99
atp1691
aa(lp1692
((lp1693
I53
aI355
a(lp1694
I465
aI116
aI8
aI574
atp1695
aa(lp1696
((lp1697
I235
aI346
aI259
a(lp1698
I465
aI349
aI312
aI612
atp1699
aa(lp1700
((lp1701
I235
aI176
aI259
a(lp1702
I465
aI383
aI612
aI147
atp1703
aa(lp1704
((lp1705
I53
aI355
a(lp1706
I465
aI594
aI194
aI512
atp1707
aa(lp1708
a(lp1709
((lp1710
I235
aI463
aI173
a(lp1711
I465
aI601
aI363
aI339
atp1712
aa(lp1713
((lp1714
I235
aI198
aI355
a(lp1715
I465
aI594
aI312
aI150
atp1716
aa(lp1717
((lp1718
I53
aI259
a(lp1719
I465
aI594
aI587
aI136
atp1720
aa(lp1721
((lp1722
I465
a(lp1723
I110
aI147
atp1724
aa(lp1725
((lp1726
I53
aI355
a(lp1727
I465
aI594
aI383
aI143
atp1728
aa(lp1729
((lp1730
I235
aI615
aI259
a(lp1731
I465
aI594
aI615
aI420
atp1732
aa(lp1733
((lp1734
I374
aI173
aI259
a(lp1735
I465
aI594
aI143
aI36
atp1736
aa(lp1737
((lp1738
I235
aI527
aI173
a(lp1739
I465
aI147
aI358
aI99
atp1740
aa(lp1741
((lp1742
I374
aI173
aI259
a(lp1743
I465
aI594
aI333
aI584
atp1744
aa(lp1745
((lp1746
I326
aI215
aI259
a(lp1747
I465
aI499
aI28
aI211
atp1748
aa(lp1749
((lp1750
I326
aI155
aI173
a(lp1751
I465
aI155
aI427
aI443
atp1752
aa(lp1753
((lp1754
I465
a(lp1755
I99
aI399
aI383
atp1756
aa(lp1757
((lp1758
I483
aI259
a(lp1759
I465
aI147
aI44
aI591
atp1760
aa(lp1761
((lp1762
I326
aI118
aI259
a(lp1763
I465
aI116
aI343
aI363
atp1764
aa(lp1765
((lp1766
I374
aI173
aI355
a(lp1767
I465
aI294
aI149
aI420
atp1768
aa(lp1769
((lp1770
I477
aI355
aI578
a(lp1771
I465
aI217
aI611
aI144
atp1772
aa(lp1773
((lp1774
I374
aI259
aI355
a(lp1775
I465
aI147
aI559
aI351
atp1776
aa(lp1777
((lp1778
I465
a(lp1779
I392
aI147
aI350
atp1780
aa(lp1781
((lp1782
I53
aI355
a(lp1783
I465
aI594
aI526
aI104
atp1784
aa(lp1785
((lp1786
I477
aI355
aI578
a(lp1787
I465
aI594
aI2
aI362
atp1788
aa(lp1789
((lp1790
I53
aI173
a(lp1791
I465
aI594
aI227
aI2
atp1792
aa(lp1793
((lp1794
I235
aI199
aI259
a(lp1795
I465
aI594
aI529
aI301
atp1796
aa(lp1797
((lp1798
I53
aI259
a(lp1799
I465
aI594
aI363
aI178
atp1800
aa(lp1801
((lp1802
I465
a(lp1803
I284
aI312
aI540
atp1804
aa(lp1805
((lp1806
I477
aI173
aI291
a(lp1807
I465
aI438
aI312
aI540
atp1808
aa(lp1809
((lp1810
I477
aI259
aI291
a(lp1811
I465
aI171
aI154
aI556
atp1812
aa(lp1813
((lp1814
I374
aI173
aI355
a(lp1815
I465
aI332
aI268
aI8
atp1816
aa(lp1817
((lp1818
I326
aI445
aI259
a(lp1819
I465
aI285
aI463
aI10
atp1820
aa(lp1821
((lp1822
I374
aI259
aI355
a(lp1823
I465
aI274
aI540
aI486
atp1824
aa(lp1825
((lp1826
I53
aI259
a(lp1827
I465
aI574
aI383
aI594
atp1828
aa(lp1829
((lp1830
I465
a(lp1831
I46
aI99
atp1832
aa(lp1833
((lp1834
I477
aI173
aI578
a(lp1835
I465
aI116
aI526
aI363
atp1836
aa(lp1837
((lp1838
I477
aI259
aI578
a(lp1839
I465
aI310
aI363
aI233
atp1840
aa(lp1841
((lp1842
I326
aI340
aI259
a(lp1843
I465
aI147
aI499
aI470
atp1844
aa(lp1845
a(lp1846
((lp1847
I374
aI259
aI355
a(lp1848
I465
aI594
aI383
aI612
atp1849
aa(lp1850
((lp1851
I53
aI259
a(lp1852
I465
aI209
aI271
aI594
atp1853
aa(lp1854
((lp1855
I465
a(lp1856
I147
aI333
atp1857
aa(lp1858
((lp1859
I374
aI355
aI259
a(lp1860
I465
aI116
aI410
aI363
atp1861
aa(lp1862
((lp1863
I477
aI355
aI578
a(lp1864
I465
aI594
aI333
aI143
atp1865
aa(lp1866
((lp1867
I477
aI173
aI578
a(lp1868
I465
aI363
aI558
aI345
atp1869
aa(lp1870
((lp1871
I477
aI173
aI578
a(lp1872
I465
aI339
aI213
aI236
atp1873
aa(lp1874
((lp1875
I326
aI576
aI259
a(lp1876
I465
aI347
aI594
aI60
atp1877
aa(lp1878
((lp1879
I326
aI409
aI173
a(lp1880
I465
aI143
aI116
aI36
atp1881
aa(lp1882
((lp1883
I53
aI259
a(lp1884
I465
aI594
aI383
aI339
atp1885
aa(lp1886
a(lp1887
((lp1888
I477
aI173
aI578
a(lp1889
I465
aI594
aI383
aI267
atp1890
aa(lp1891
((lp1892
I477
aI355
aI578
a(lp1893
I465
aI574
aI451
aI247
atp1894
aa(lp1895
((lp1896
I483
aI259
a(lp1897
I465
aI116
aI240
aI130
atp1898
aa(lp1899
((lp1900
I477
aI173
aI578
a(lp1901
I465
aI197
aI28
aI36
atp1902
aa(lp1903
((lp1904
I53
aI259
a(lp1905
I465
aI147
aI52
aI591
atp1906
aa(lp1907
((lp1908
I374
aI173
aI259
a(lp1909
I465
aI594
aI103
aI584
atp1910
aa(lp1911
((lp1912
I477
aI259
aI578
a(lp1913
I465
aI594
aI91
aI614
atp1914
aa(lp1915
((lp1916
I374
aI173
aI259
a(lp1917
I465
aI340
aI451
aI343
atp1918
aa(lp1919
((lp1920
I374
aI173
aI259
a(lp1921
I465
aI443
aI103
aI594
atp1922
aa(lp1923
((lp1924
I465
a(lp1925
I399
aI383
aI99
atp1926
aa(lp1927
((lp1928
I374
aI173
aI259
a(lp1929
I465
aI248
aI510
atp1930
aa(lp1931
((lp1932
I235
aI359
aI259
a(lp1933
I465
aI171
aI446
aI7
atp1934
aa(lp1935
((lp1936
I374
aI355
aI259
a(lp1937
I465
aI594
aI383
aI210
atp1938
aa(lp1939
((lp1940
I374
aI173
aI355
a(lp1941
I465
aI194
aI360
aI628
atp1942
aa(lp1943
((lp1944
I235
aI262
aI355
a(lp1945
I465
aI612
aI507
aI594
atp1946
aa(lp1947
((lp1948
I465
a(lp1949
I2
aI434
aI594
atp1950
aa(lp1951
((lp1952
I374
aI259
aI355
a(lp1953
I465
aI2
aI594
aI434
atp1954
aa(lp1955
((lp1956
I53
aI355
a(lp1957
I465
aI499
aI116
aI178
atp1958
aa(lp1959
((lp1960
I374
aI173
aI355
a(lp1961
I465
aI116
aI629
aI574
atp1962
aa(lp1963
((lp1964
I53
aI259
a(lp1965
I465
aI594
aI310
aI339
atp1966
aa(lp1967
a(lp1968
((lp1969
I465
a(lp1970
I8
aI460
aI332
atp1971
aa(lp1972
a(lp1973
((lp1974
I374
aI173
aI355
a(lp1975
I465
aI86
aI312
aI299
atp1976
aa(lp1977
((lp1978
I465
a(lp1979
I594
aI310
aI339
atp1980
aa(lp1981
((lp1982
I53
aI259
a(lp1983
I465
aI285
aI568
aI10
atp1984
aa(lp1985
((lp1986
I465
a(lp1987
I268
atp1988
aa(lp1989
a(lp1990
((lp1991
I235
aI613
aI259
a(lp1992
I465
aI28
aI128
aI295
atp1993
aa(lp1994
((lp1995
I465
a(lp1996
I594
aI383
aI8
atp1997
aa(lp1998
((lp1999
I477
aI355
aI578
a(lp2000
I465
aI180
aI526
aI338
atp2001
aa(lp2002
((lp2003
I53
aI173
a(lp2004
I465
aI383
aI363
aI116
atp2005
aa(lp2006
((lp2007
I477
aI259
aI578
a(lp2008
I465
aI360
aI495
aI363
atp2009
aa(lp2010
((lp2011
I477
aI173
aI291
a(lp2012
I465
aI438
aI312
aI540
atp2013
aa(lp2014
((lp2015
I465
a(lp2016
I452
aI592
aI434
atp2017
aa(lp2018
((lp2019
I53
aI259
a(lp2020
I465
aI19
aI150
aI594
atp2021
aa(lp2022
((lp2023
I235
aI507
aI259
a(lp2024
I465
aI612
aI507
aI320
atp2025
aa(lp2026
((lp2027
I465
a(lp2028
I594
aI2
atp2029
aa(lp2030
((lp2031
I374
aI173
aI259
a(lp2032
I465
aI612
aI624
aI147
atp2033
aa(lp2034
((lp2035
I374
aI173
aI259
a(lp2036
I465
aI147
aI463
aI328
atp2037
aa(lp2038
((lp2039
I477
aI355
aI578
a(lp2040
I465
aI594
aI2
aI239
atp2041
aa(lp2042
((lp2043
I374
aI173
aI355
a(lp2044
I465
aI116
aI261
aI32
atp2045
aa(lp2046
((lp2047
I374
aI173
aI355
a(lp2048
I465
aI594
aI64
aI312
atp2049
aa(lp2050
((lp2051
I465
a(lp2052
I594
aI99
aI150
atp2053
aa(lp2054
((lp2055
I326
aI614
aI355
a(lp2056
I465
aI594
aI463
aI614
atp2057
aa(lp2058
((lp2059
I374
aI259
aI355
a(lp2060
I465
aI114
aI116
aI247
atp2061
aa(lp2062
((lp2063
I374
aI173
aI355
a(lp2064
I465
aI116
aI261
aI32
atp2065
aa(lp2066
((lp2067
I326
aI59
aI259
a(lp2068
I465
aI232
aI594
aI531
atp2069
aa(lp2070
((lp2071
I326
aI546
aI259
a(lp2072
I465
aI594
aI363
aI378
atp2073
aa(lp2074
((lp2075
I235
aI343
aI355
a(lp2076
I465
aI594
aI99
aI312
atp2077
aa(lp2078
((lp2079
I374
aI173
aI355
a(lp2080
I465
aI594
aI526
aI231
atp2081
aa(lp2082
((lp2083
I477
aI355
aI578
a(lp2084
I465
aI349
aI58
aI612
atp2085
aa(lp2086
((lp2087
I53
aI173
a(lp2088
I465
aI594
aI65
aI37
atp2089
aa(lp2090
((lp2091
I374
aI259
aI355
a(lp2092
I465
aI594
aI363
aI42
atp2093
aa(lp2094
((lp2095
I374
aI259
aI355
a(lp2096
I465
aI99
aI594
aI544
atp2097
aa(lp2098
((lp2099
I53
aI259
a(lp2100
I465
aI594
aI526
aI466
atp2101
aa(lp2102
((lp2103
I477
aI173
aI578
a(lp2104
I465
aI594
aI178
aI93
atp2105
aa(lp2106
((lp2107
I477
aI259
aI578
a(lp2108
I465
aI28
aI363
aI410
atp2109
aa(lp2110
((lp2111
I326
aI193
aI173
a(lp2112
I465
aI594
aI109
aI614
atp2113
aa(lp2114
a(lp2115
((lp2116
I53
aI259
a(lp2117
I465
aI594
aI383
aI540
atp2118
aa(lp2119
((lp2120
I477
aI173
aI578
a(lp2121
I465
aI339
aI213
aI236
atp2122
aa(lp2123
((lp2124
I53
aI173
a(lp2125
I465
aI116
aI363
aI410
atp2126
aa(lp2127
((lp2128
I374
aI259
aI355
a(lp2129
I465
aI171
aI312
aI446
atp2130
aa(lp2131
((lp2132
I477
aI173
aI578
a(lp2133
I465
aI302
aI499
aI574
atp2134
aa(lp2135
((lp2136
I374
aI173
aI259
a(lp2137
I465
aI116
aI574
aI247
atp2138
aa(lp2139
((lp2140
I374
aI173
aI355
a(lp2141
I465
aI284
aI312
aI540
atp2142
aa(lp2143
((lp2144
I374
aI259
aI355
a(lp2145
I465
aI458
aI382
aI45
atp2146
aa(lp2147
((lp2148
I235
aI274
aI173
a(lp2149
I465
aI274
aI526
aI363
atp2150
aa(lp2151
((lp2152
I326
aI627
aI355
a(lp2153
I465
aI558
aI363
aI547
atp2154
aa(lp2155
((lp2156
I235
aI12
aI173
a(lp2157
I465
aI594
aI366
aI52
atp2158
aa(lp2159
((lp2160
I53
aI259
a(lp2161
I465
aI28
aI340
aI104
atp2162
aa(lp2163
a(lp2164
((lp2165
I53
aI259
a(lp2166
I465
aI147
aI526
aI194
atp2167
aa(lp2168
((lp2169
I477
aI259
aI578
a(lp2170
I465
aI147
aI99
aI318
atp2171
aa(lp2172
((lp2173
I465
a(lp2174
I103
aI443
aI406
atp2175
aa(lp2176
((lp2177
I465
a(lp2178
I99
aI594
aI544
atp2179
aa(lp2180
((lp2181
I374
aI173
aI355
a(lp2182
I465
aI614
aI310
aI594
atp2183
aa(lp2184
((lp2185
I374
aI259
aI355
a(lp2186
I465
aI594
aI143
aI574
atp2187
aa(lp2188
((lp2189
I53
aI355
a(lp2190
I465
aI594
aI508
aI362
atp2191
aa(lp2192
((lp2193
I326
aI273
aI259
a(lp2194
I465
aI594
aI99
aI363
atp2195
aa(lp2196
((lp2197
I235
aI105
aI173
a(lp2198
I465
aI116
aI209
aI462
atp2199
aa(lp2200
((lp2201
I374
aI173
aI259
a(lp2202
I465
aI594
aI333
aI104
atp2203
aa(lp2204
((lp2205
I53
aI259
a(lp2206
I465
aI28
aI213
aI178
atp2207
aa(lp2208
a(lp2209
((lp2210
I235
aI104
aI259
a(lp2211
I465
aI110
aI267
aI310
atp2212
aa(lp2213
((lp2214
I483
aI259
a(lp2215
I465
aI147
aI472
aI129
atp2216
aa(lp2217
((lp2218
I477
aI355
aI578
a(lp2219
I465
aI594
aI2
aI612
atp2220
aa(lp2221
((lp2222
I326
aI17
aI259
a(lp2223
I465
aI594
aI310
aI540
atp2224
aa(lp2225
a(lp2226
((lp2227
I374
aI259
aI355
a(lp2228
I465
aI2
aI594
aI434
atp2229
aa(lp2230
((lp2231
I326
aI232
aI259
a(lp2232
I465
aI594
aI232
aI591
atp2233
aa(lp2234
((lp2235
I477
aI173
aI578
a(lp2236
I465
aI2
aI466
atp2237
aa(lp2238
((lp2239
I483
aI259
a(lp2240
I465
aI116
aI240
aI130
atp2241
aa(lp2242
((lp2243
I235
aI153
aI259
a(lp2244
I465
aI116
aI21
aI247
atp2245
aa(lp2246
a(lp2247
((lp2248
I465
a(lp2249
I231
aI274
aI212
atp2250
aa(lp2251
((lp2252
I235
aI200
aI259
a(lp2253
I465
aI612
aI363
aI147
atp2254
aa(lp2255
((lp2256
I477
aI173
aI578
a(lp2257
I465
aI540
aI363
aI594
atp2258
aa(lp2259
((lp2260
I465
a(lp2261
I232
aI608
aI531
atp2262
aa(lp2263
((lp2264
I374
aI173
aI259
a(lp2265
I465
aI19
aI147
aI191
atp2266
aa(lp2267
((lp2268
I465
a(lp2269
I594
aI333
aI202
atp2270
aa(lp2271
((lp2272
I465
a(lp2273
I453
aI394
atp2274
aa(lp2275
((lp2276
I326
aI377
aI259
a(lp2277
I465
aI52
aI377
aI285
atp2278
aa(lp2279
((lp2280
I465
a(lp2281
I594
aI209
aI339
atp2282
aa(lp2283
((lp2284
I477
aI355
aI578
a(lp2285
I465
aI116
aI247
aI310
atp2286
aa(lp2287
((lp2288
I326
aI292
aI173
a(lp2289
I465
aI469
aI202
aI584
atp2290
aa(lp2291
((lp2292
I374
aI355
aI259
a(lp2293
I465
aI314
aI2
aI620
atp2294
aa(lp2295
((lp2296
I374
aI173
aI355
a(lp2297
I465
aI594
aI574
aI531
atp2298
aa(lp2299
((lp2300
I374
aI173
aI259
a(lp2301
I465
aI594
aI333
aI103
atp2302
aa(lp2303
((lp2304
I374
aI259
aI355
a(lp2305
I465
aI594
aI333
aI531
atp2306
aa(lp2307
((lp2308
I465
a(lp2309
I36
aI28
aI330
atp2310
aa(lp2311
((lp2312
I53
aI259
a(lp2313
I465
aI594
aI574
atp2314
aa(lp2315
((lp2316
I465
a(lp2317
I594
aI383
aI540
atp2318
aa(lp2319
((lp2320
I235
aI303
aI173
a(lp2321
I465
aI594
aI258
atp2322
aa(lp2323
((lp2324
I465
a(lp2325
I594
aI574
aI612
atp2326
aa(lp2327
((lp2328
I53
aI173
a(lp2329
I465
aI594
aI526
aI383
atp2330
aa(lp2331
a(lp2332
((lp2333
I374
aI173
aI355
a(lp2334
I465
aI594
aI530
aI378
atp2335
aa(lp2336
((lp2337
I374
aI259
aI355
a(lp2338
I465
aI458
aI382
aI45
atp2339
aa(lp2340
((lp2341
I374
aI173
aI259
a(lp2342
I465
aI2
aI594
atp2343
aa(lp2344
((lp2345
I374
aI173
aI355
a(lp2346
I465
aI594
aI526
aI404
atp2347
aa(lp2348
((lp2349
I374
aI173
aI355
a(lp2350
I465
aI594
aI310
aI229
atp2351
aa(lp2352
((lp2353
I374
aI259
aI355
a(lp2354
I465
aI594
aI232
aI584
atp2355
aa(lp2356
((lp2357
I477
aI355
aI578
a(lp2358
I465
aI594
aI44
aI46
atp2359
aa(lp2360
((lp2361
I477
aI259
aI578
a(lp2362
I465
aI624
aI612
aI422
atp2363
aa(lp2364
((lp2365
I374
aI355
aI259
a(lp2366
I465
aI463
aI178
aI116
atp2367
aa(lp2368
((lp2369
I374
aI173
aI355
a(lp2370
I465
aI378
aI530
aI594
atp2371
aa(lp2372
((lp2373
I374
aI173
aI259
a(lp2374
I465
aI594
aI463
aI104
atp2375
aa(lp2376
((lp2377
I374
aI259
aI173
a(lp2378
I465
aI594
aI60
aI138
atp2379
aa(lp2380
((lp2381
I326
aI147
aI355
a(lp2382
I465
aI443
aI440
aI594
atp2383
aa(lp2384
((lp2385
I465
a(lp2386
I378
aI530
aI594
atp2387
aa(lp2388
((lp2389
I53
aI355
a(lp2390
I465
aI594
aI312
aI584
atp2391
aa(lp2392
((lp2393
I465
a(lp2394
I594
aI383
aI540
atp2395
aa(lp2396
((lp2397
I235
aI383
aI259
a(lp2398
I465
aI594
aI383
aI434
atp2399
aa(lp2400
((lp2401
I477
aI355
aI578
a(lp2402
I465
aI499
aI232
aI388
atp2403
aa(lp2404
((lp2405
I235
aI428
aI355
a(lp2406
I465
aI194
aI360
aI363
atp2407
aa(lp2408
((lp2409
I235
aI447
aI259
a(lp2410
I465
aI466
aI396
aI594
atp2411
aa(lp2412
((lp2413
I53
aI355
a(lp2414
I465
aI594
aI574
aI46
atp2415
aa(lp2416
((lp2417
I53
aI173
a(lp2418
I465
aI116
aI363
aI410
atp2419
aa(lp2420
((lp2421
I235
aI627
aI173
a(lp2422
I465
aI147
aI268
aI99
atp2423
aa(lp2424
((lp2425
I483
aI355
a(lp2426
I465
aI147
aI463
aI318
atp2427
aa(lp2428
((lp2429
I477
aI173
aI291
a(lp2430
I465
aI141
aI594
aI210
atp2431
aa(lp2432
a(lp2433
((lp2434
I326
aI146
aI173
a(lp2435
I465
aI167
aI574
aI77
atp2436
aa(lp2437
((lp2438
I374
aI173
aI355
a(lp2439
I465
aI594
aI383
aI333
atp2440
aa(lp2441
((lp2442
I326
aI198
aI355
a(lp2443
I465
aI171
aI446
aI312
atp2444
aa(lp2445
((lp2446
I465
a(lp2447
I594
aI202
aI574
atp2448
aa(lp2449
((lp2450
I465
a(lp2451
I594
aI223
atp2452
aa(lp2453
((lp2454
I483
aI259
a(lp2455
I465
aI4
aI557
aI594
atp2456
aa(lp2457
((lp2458
I477
aI259
aI578
a(lp2459
I465
aI594
aI143
aI362
atp2460
aa(lp2461
((lp2462
I53
aI355
a(lp2463
I465
aI584
aI340
aI147
atp2464
aa(lp2465
((lp2466
I235
aI363
aI355
a(lp2467
I465
aI594
aI60
aI363
atp2468
aa(lp2469
((lp2470
I477
aI259
aI578
a(lp2471
I465
aI584
aI116
aI526
atp2472
aa(lp2473
((lp2474
I483
aI259
a(lp2475
I465
aI347
aI419
aI60
atp2476
aa(lp2477
a(lp2478
((lp2479
I326
aI334
aI259
a(lp2480
I465
aI594
aI2
aI356
atp2481
aa(lp2482
((lp2483
I53
aI259
a(lp2484
I465
aI468
aI176
aI147
atp2485
aa(lp2486
((lp2487
I53
aI173
a(lp2488
I465
aI396
aI434
aI452
atp2489
aa(lp2490
((lp2491
I374
aI259
aI355
a(lp2492
I465
aI109
aI494
aI614
atp2493
aa(lp2494
((lp2495
I326
aI449
aI355
a(lp2496
I465
aI594
aI60
aI213
atp2497
aa(lp2498
((lp2499
I374
aI173
aI355
a(lp2500
I465
aI147
aI90
aI562
atp2501
aa(lp2502
((lp2503
I374
aI173
aI259
a(lp2504
I465
aI594
aI141
aI210
atp2505
aa(lp2506
((lp2507
I53
aI259
a(lp2508
I465
aI594
aI383
aI362
atp2509
aa(lp2510
((lp2511
I53
aI355
a(lp2512
I465
aI464
aI418
aI2
atp2513
aa(lp2514
((lp2515
I235
aI65
aI259
a(lp2516
I465
aI314
aI2
aI620
atp2517
aa(lp2518
((lp2519
I235
aI333
aI355
a(lp2520
I465
aI423
aI596
aI268
atp2521
aa(lp2522
((lp2523
I374
aI173
aI259
a(lp2524
I465
aI594
aI580
aI331
atp2525
aa(lp2526
a(lp2527
((lp2528
I465
a(lp2529
I574
aI451
aI247
atp2530
aa(lp2531
((lp2532
I235
aI386
aI259
a(lp2533
I465
aI594
aI574
aI130
atp2534
aa(lp2535
((lp2536
I374
aI173
aI259
a(lp2537
I465
aI594
aI143
aI513
atp2538
aa(lp2539
((lp2540
I235
aI2
aI355
a(lp2541
I465
aI464
aI418
aI2
atp2542
aa(lp2543
((lp2544
I374
aI173
aI259
a(lp2545
I465
aI116
aI432
atp2546
aa(lp2547
((lp2548
I465
a(lp2549
I567
aI116
aI210
atp2550
aa(lp2551
((lp2552
I53
aI259
a(lp2553
I465
aI594
aI312
aI462
atp2554
aa(lp2555
((lp2556
I374
aI259
aI355
a(lp2557
I465
aI594
aI450
aI540
atp2558
aa(lp2559
((lp2560
I326
aI110
aI355
a(lp2561
I465
aI594
aI21
aI372
atp2562
aa(lp2563
((lp2564
I374
aI173
aI259
a(lp2565
I465
aI143
aI99
aI536
atp2566
aa(lp2567
((lp2568
I477
aI355
aI578
a(lp2569
I465
aI350
aI147
aI224
atp2570
aa(lp2571
((lp2572
I465
a(lp2573
I378
aI530
aI594
atp2574
aa(lp2575
((lp2576
I53
aI259
a(lp2577
I465
aI403
aI55
aI116
atp2578
aa(lp2579
((lp2580
I53
aI173
a(lp2581
I465
aI594
aI8
aI574
atp2582
aa(lp2583
((lp2584
I465
a(lp2585
I594
aI339
aI143
atp2586
aa(lp2587
((lp2588
I374
aI173
aI259
a(lp2589
I465
aI494
aI109
aI614
atp2590
aa(lp2591
((lp2592
I235
aI359
aI173
a(lp2593
I465
aI394
aI518
aI418
atp2594
aa(lp2595
((lp2596
I477
aI259
aI578
a(lp2597
I465
aI28
aI439
aI178
atp2598
aa(lp2599
((lp2600
I53
aI173
a(lp2601
I465
aI20
aI462
aI594
atp2602
aa(lp2603
((lp2604
I477
aI173
aI578
a(lp2605
I465
aI574
aI451
aI343
atp2606
aa(lp2607
((lp2608
I465
a(lp2609
I614
aI310
aI594
atp2610
aa(lp2611
((lp2612
I374
aI173
aI355
a(lp2613
I465
aI594
aI310
aI229
atp2614
aa(lp2615
((lp2616
I374
aI259
aI355
a(lp2617
I465
aI434
aI588
aI594
atp2618
aa(lp2619
((lp2620
I326
aI245
aI259
a(lp2621
I465
aI594
aI168
aI462
atp2622
aa(lp2623
((lp2624
I477
aI259
aI578
a(lp2625
I465
aI499
aI2
aI116
atp2626
aa(lp2627
((lp2628
I235
aI239
aI259
a(lp2629
I465
aI133
aI202
aI147
atp2630
aa(lp2631
((lp2632
I477
aI173
aI578
a(lp2633
I465
aI540
aI363
aI594
atp2634
aa(lp2635
((lp2636
I374
aI259
aI355
a(lp2637
I465
aI594
aI99
aI430
atp2638
aa(lp2639
((lp2640
I465
a(lp2641
I594
aI499
aI462
atp2642
aa(lp2643
a(lp2644
((lp2645
I477
aI259
aI578
a(lp2646
I465
aI594
aI37
aI276
atp2647
aa(lp2648
((lp2649
I477
aI173
aI578
a(lp2650
I465
aI594
aI202
aI356
atp2651
aa(lp2652
((lp2653
I477
aI259
aI578
a(lp2654
I465
aI594
aI587
aI466
atp2655
aa(lp2656
((lp2657
I374
aI173
aI355
a(lp2658
I465
aI594
aI507
aI612
atp2659
aa(lp2660
((lp2661
I235
aI6
aI259
a(lp2662
I465
aI28
aI586
aI492
atp2663
aa(lp2664
((lp2665
I235
aI80
aI355
a(lp2666
I465
aI630
aI552
aI80
atp2667
aa(lp2668
((lp2669
I374
aI173
aI259
a(lp2670
I465
aI594
aI23
aI412
atp2671
aa(lp2672
((lp2673
I374
aI173
aI355
a(lp2674
I465
aI285
aI528
aI10
atp2675
aa(lp2676
((lp2677
I235
aI366
aI173
a(lp2678
I465
aI143
aI594
aI513
atp2679
aa(lp2680
a(lp2681
((lp2682
I465
a(lp2683
I147
aI384
aI203
atp2684
aa(lp2685
((lp2686
I477
aI173
aI578
a(lp2687
I465
aI116
aI540
aI222
atp2688
aa(lp2689
((lp2690
I235
aI383
aI259
a(lp2691
I465
aI594
aI383
aI540
atp2692
aa(lp2693
((lp2694
I465
a(lp2695
I594
aI2
aI138
atp2696
aa(lp2697
((lp2698
I53
aI259
a(lp2699
I465
aI281
aI333
aI612
atp2700
aa(lp2701
((lp2702
I53
aI173
a(lp2703
I465
aI274
aI526
aI363
atp2704
aa(lp2705
((lp2706
I374
aI173
aI259
a(lp2707
I465
aI594
aI363
aI46
atp2708
aa(lp2709
((lp2710
I477
aI355
aI578
a(lp2711
I465
aI19
aI191
aI594
atp2712
aa(lp2713
((lp2714
I465
a(lp2715
I594
aI96
aI584
atp2716
aa(lp2717
((lp2718
I483
aI355
a(lp2719
I465
aI594
aI23
aI260
atp2720
aa(lp2721
((lp2722
I465
a(lp2723
I116
aI339
aI103
atp2724
aa(lp2725
((lp2726
I235
aI110
aI173
a(lp2727
I465
aI594
aI143
aI377
atp2728
aa(lp2729
a(lp2730
((lp2731
I235
aI199
aI259
a(lp2732
I465
aI551
aI333
aI540
atp2733
aa(lp2734
((lp2735
I477
aI173
aI291
a(lp2736
I465
aI114
aI247
aI116
atp2737
aa(lp2738
((lp2739
I477
aI259
aI578
a(lp2740
I465
aI310
aI594
aI21
atp2741
aa(lp2742
((lp2743
I53
aI355
a(lp2744
I465
aI310
aI147
aI21
atp2745
aa(lp2746
((lp2747
I53
aI259
a(lp2748
I465
aI266
aI234
aI202
atp2749
aa(lp2750
((lp2751
I374
aI173
aI355
a(lp2752
I465
aI594
aI557
aI411
atp2753
aa(lp2754
a(lp2755
((lp2756
I374
aI259
aI355
a(lp2757
I465
aI594
aI309
aI153
atp2758
aa(lp2759
((lp2760
I374
aI173
aI259
a(lp2761
I465
aI434
aI587
aI594
atp2762
aa(lp2763
((lp2764
I326
aI533
aI259
a(lp2765
I465
aI48
aI358
aI99
atp2766
aa(lp2767
((lp2768
I235
aI206
aI259
a(lp2769
I465
aI625
aI444
aI104
atp2770
aa(lp2771
((lp2772
I53
aI259
a(lp2773
I465
aI360
aI312
aI363
atp2774
aa(lp2775
((lp2776
I477
aI259
aI578
a(lp2777
I465
aI594
aI202
aI2
atp2778
aa(lp2779
((lp2780
I465
a(lp2781
I594
aI198
aI531
atp2782
aa(lp2783
((lp2784
I235
aI622
aI259
a(lp2785
I465
aI133
aI622
aI147
atp2786
aa(lp2787
((lp2788
I477
aI259
aI291
a(lp2789
I465
aI551
aI519
aI581
atp2790
aa(lp2791
((lp2792
I235
aI181
aI355
a(lp2793
I465
aI594
aI209
aI553
atp2794
aa(lp2795
((lp2796
I477
aI355
aI578
a(lp2797
I465
aI594
aI526
aI247
atp2798
aa(lp2799
((lp2800
I477
aI259
aI578
a(lp2801
I465
aI390
aI517
atp2802
aa(lp2803
((lp2804
I477
aI259
aI578
a(lp2805
I465
aI594
aI448
aI301
atp2806
aa(lp2807
((lp2808
I235
aI6
aI259
a(lp2809
I465
aI28
aI586
aI492
atp2810
aa(lp2811
((lp2812
I235
aI500
aI259
a(lp2813
I465
aI133
aI500
aI147
atp2814
aa(lp2815
((lp2816
I235
aI12
aI173
a(lp2817
I465
aI60
aI434
aI594
atp2818
aa(lp2819
((lp2820
I465
a(lp2821
I594
aI2
aI239
atp2822
aa(lp2823
((lp2824
I53
aI355
a(lp2825
I465
aI310
aI147
aI21
atp2826
aa(lp2827
((lp2828
I374
aI259
aI355
a(lp2829
I465
aI116
aI574
aI629
atp2830
aa(lp2831
((lp2832
I477
aI259
aI578
a(lp2833
I465
aI458
aI461
aI418
atp2834
aa(lp2835
((lp2836
I374
aI173
aI259
a(lp2837
I465
aI23
aI594
aI412
atp2838
aa(lp2839
((lp2840
I53
aI259
a(lp2841
I465
aI594
aI526
aI466
atp2842
aa(lp2843
((lp2844
I235
aI622
aI355
a(lp2845
I465
aI594
aI363
aI210
atp2846
aa(lp2847
((lp2848
I465
a(lp2849
I468
aI147
atp2850
aa(lp2851
((lp2852
I326
aI143
aI259
a(lp2853
I465
aI594
aI143
aI209
atp2854
aa(lp2855
((lp2856
I374
aI259
aI355
a(lp2857
I465
aI624
aI418
aI422
atp2858
aa(lp2859
((lp2860
I477
aI173
aI578
a(lp2861
I465
aI404
aI261
aI18
atp2862
aa(lp2863
((lp2864
I235
aI505
aI173
a(lp2865
I465
aI594
aI241
aI99
atp2866
aa(lp2867
((lp2868
I465
a(lp2869
I33
aI590
atp2870
aa(lp2871
((lp2872
I235
aI104
aI259
a(lp2873
I465
aI283
aI366
aI370
atp2874
aa(lp2875
((lp2876
I326
aI110
aI173
a(lp2877
I465
aI594
aI99
aI182
atp2878
aa(lp2879
((lp2880
I235
aI493
aI355
a(lp2881
I465
aI594
aI310
aI614
atp2882
aa(lp2883
((lp2884
I235
aI418
aI355
a(lp2885
I465
aI463
aI172
aI178
atp2886
aa(lp2887
a(lp2888
((lp2889
I465
a(lp2890
I333
aI594
aI584
atp2891
aa(lp2892
a(lp2893
((lp2894
I374
aI173
aI355
a(lp2895
I465
aI285
aI528
aI10
atp2896
aa(lp2897
((lp2898
I53
aI355
a(lp2899
I465
aI594
aI443
aI99
atp2900
aa(lp2901
((lp2902
I235
aI428
aI259
a(lp2903
I465
aI116
aI202
aI363
atp2904
aa(lp2905
((lp2906
I53
aI355
a(lp2907
I465
aI110
aI82
aI310
atp2908
aa(lp2909
((lp2910
I326
aI356
aI355
a(lp2911
I465
aI103
aI443
aI594
atp2912
aa(lp2913
((lp2914
I374
aI173
aI259
a(lp2915
I465
aI280
aI587
aI375
atp2916
aa(lp2917
((lp2918
I235
aI371
aI259
a(lp2919
I465
aI594
aI202
aI178
atp2920
aa(lp2921
((lp2922
I477
aI259
aI578
a(lp2923
I465
aI2
aI147
aI462
atp2924
aa(lp2925
((lp2926
I477
aI259
aI578
a(lp2927
I465
aI594
aI209
aI160
atp2928
aa(lp2929
((lp2930
I374
aI173
aI355
a(lp2931
I465
aI224
aI147
aI598
atp2932
aa(lp2933
((lp2934
I477
aI259
aI578
a(lp2935
I465
aI594
aI143
aI434
atp2936
aa(lp2937
((lp2938
I235
aI325
aI173
a(lp2939
I465
aI363
aI102
aI594
atp2940
aa(lp2941
a(lp2942
((lp2943
I477
aI355
aI578
a(lp2944
I465
aI594
aI526
aI462
atp2945
aa(lp2946
((lp2947
I53
aI173
a(lp2948
I465
aI594
aI443
aI98
atp2949
aa(lp2950
((lp2951
I235
aI524
aI173
a(lp2952
I465
aI116
aI96
aI548
atp2953
aa(lp2954
((lp2955
I374
aI173
aI259
a(lp2956
I465
aI558
aI363
aI345
atp2957
aa(lp2958
((lp2959
I477
aI173
aI578
a(lp2960
I465
aI147
aI383
aI243
atp2961
aa(lp2962
((lp2963
I53
aI355
a(lp2964
I465
aI147
aI99
aI186
atp2965
aa(lp2966
((lp2967
I53
aI259
a(lp2968
I465
aI280
aI526
aI150
atp2969
aa(lp2970
((lp2971
I465
a(lp2972
I594
aI60
aI363
atp2973
aa(lp2974
((lp2975
I235
aI346
aI259
a(lp2976
I465
aI349
aI312
aI612
atp2977
aa(lp2978
((lp2979
I235
aI613
aI259
a(lp2980
I465
aI594
aI627
atp2981
aa(lp2982
((lp2983
I374
aI259
aI355
a(lp2984
I465
aI592
aI434
aI452
atp2985
aa(lp2986
((lp2987
I53
aI173
a(lp2988
I465
aI594
aI343
aI363
atp2989
aa(lp2990
((lp2991
I465
a(lp2992
I110
aI147
atp2993
aa(lp2994
((lp2995
I477
aI173
aI578
a(lp2996
I465
aI594
aI99
aI186
atp2997
aa(lp2998
((lp2999
I53
aI259
a(lp3000
I465
aI192
aI102
aI116
atp3001
aa(lp3002
a(lp3003
((lp3004
I326
aI198
aI259
a(lp3005
I465
aI333
aI28
aI103
atp3006
aa(lp3007
((lp3008
I374
aI173
aI355
a(lp3009
I465
aI429
aI363
aI339
atp3010
aa(lp3011
((lp3012
I465
a(lp3013
I28
aI209
aI142
atp3014
aa(lp3015
((lp3016
I483
aI259
a(lp3017
I465
aI594
aI324
aI94
atp3018
aa(lp3019
((lp3020
I326
aI103
aI355
a(lp3021
I465
aI594
aI143
aI612
atp3022
aa(lp3023
((lp3024
I465
a(lp3025
I232
aI466
atp3026
aa(lp3027
((lp3028
I465
a(lp3029
I594
aI99
aI584
atp3030
aa(lp3031
((lp3032
I53
aI355
a(lp3033
I465
aI594
aI143
aI312
atp3034
aa(lp3035
((lp3036
I53
aI259
a(lp3037
I465
aI594
aI383
aI540
atp3038
aa(lp3039
((lp3040
I477
aI173
aI578
a(lp3041
I465
aI594
aI178
aI531
atp3042
aa(lp3043
((lp3044
I53
aI173
a(lp3045
I465
aI594
aI210
aI383
atp3046
aa(lp3047
((lp3048
I235
aI263
aI355
a(lp3049
I465
aI143
aI594
aI150
atp3050
aa(lp3051
((lp3052
I477
aI173
aI578
a(lp3053
I465
aI594
aI526
aI194
atp3054
aa(lp3055
((lp3056
I235
aI199
aI259
a(lp3057
I465
aI28
aI315
aI492
atp3058
aa(lp3059
((lp3060
I326
aI381
aI355
a(lp3061
I465
aI147
aI383
aI268
atp3062
aa(lp3063
((lp3064
I465
a(lp3065
I147
aI46
aI99
atp3066
aa(lp3067
((lp3068
I477
aI259
aI578
a(lp3069
I465
aI209
aI478
aI594
atp3070
aa(lp3071
((lp3072
I465
a(lp3073
I28
aI209
aI142
atp3074
aa(lp3075
a(lp3076
((lp3077
I374
aI173
aI259
a(lp3078
I465
aI537
aI273
aI363
atp3079
aa(lp3080
((lp3081
I374
aI173
aI355
a(lp3082
I465
aI594
aI310
aI614
atp3083
aa(lp3084
((lp3085
I465
a(lp3086
I453
aI394
atp3087
aa(lp3088
((lp3089
I477
aI173
aI578
a(lp3090
I465
aI48
aI387
aI132
atp3091
aa(lp3092
((lp3093
I374
aI173
aI355
a(lp3094
I465
aI594
aI363
aI540
atp3095
aa(lp3096
a(lp3097
((lp3098
I326
aI393
aI173
a(lp3099
I465
aI594
aI363
aI462
atp3100
aa(lp3101
((lp3102
I374
aI355
aI259
a(lp3103
I465
aI274
aI363
aI184
atp3104
aa(lp3105
a(lp3106
((lp3107
I53
aI355
a(lp3108
I465
aI594
aI159
aI362
atp3109
aa(lp3110
((lp3111
I326
aI607
aI259
a(lp3112
I465
aI463
aI594
aI597
atp3113
aa(lp3114
((lp3115
I235
aI613
aI355
a(lp3116
I465
aI404
aI526
aI594
atp3117
aa(lp3118
((lp3119
I53
aI259
a(lp3120
I465
aI8
aI143
aI426
atp3121
aa(lp3122
((lp3123
I235
aI322
aI259
a(lp3124
I465
aI594
aI586
atp3125
aa(lp3126
((lp3127
I374
aI173
aI259
a(lp3128
I465
aI594
aI23
aI412
atp3129
aa(lp3130
((lp3131
I374
aI173
aI259
a(lp3132
I465
aI594
aI143
aI513
atp3133
aa(lp3134
((lp3135
I477
aI259
aI578
a(lp3136
I465
aI594
aI531
aI99
atp3137
aa(lp3138
a(lp3139
a(lp3140
a(lp3141
a(lp3142
((lp3143
I465
a(lp3144
I594
aI333
aI362
atp3145
aa(lp3146
((lp3147
I477
aI173
aI578
a(lp3148
I465
aI594
aI143
aI210
atp3149
aa(lp3150
((lp3151
I326
aI334
aI259
a(lp3152
I465
aI86
aI64
aI312
atp3153
aa(lp3154
((lp3155
I326
aI214
aI259
a(lp3156
I465
aI526
aI274
aI584
atp3157
aa(lp3158
((lp3159
I477
aI355
aI578
a(lp3160
I465
aI594
aI333
aI46
atp3161
aa(lp3162
((lp3163
I235
aI386
aI259
a(lp3164
I465
aI594
aI574
aI130
atp3165
aa(lp3166
((lp3167
I477
aI355
aI291
a(lp3168
I465
aI594
aI190
aI253
atp3169
aa(lp3170
((lp3171
I53
aI173
a(lp3172
I465
aI499
aI296
aI211
atp3173
aa(lp3174
((lp3175
I235
aI239
aI355
a(lp3176
I465
aI499
aI232
aI116
atp3177
aa(lp3178
((lp3179
I235
aI434
aI355
a(lp3180
I465
aI594
aI310
aI434
atp3181
aa(lp3182
((lp3183
I483
aI355
a(lp3184
I465
aI463
aI147
aI328
atp3185
aa(lp3186
((lp3187
I374
aI259
aI355
a(lp3188
I465
aI19
aI191
aI147
atp3189
aa(lp3190
((lp3191
I235
aI95
aI355
a(lp3192
I465
aI594
aI99
aI210
atp3193
aa(lp3194
((lp3195
I235
aI273
aI259
a(lp3196
I465
aI99
aI454
aI365
atp3197
aa(lp3198
((lp3199
I477
aI173
aI578
a(lp3200
I465
aI594
aI310
aI362
atp3201
aa(lp3202
((lp3203
I374
aI173
aI259
a(lp3204
I465
aI147
aI178
aI93
atp3205
aa(lp3206
((lp3207
I465
a(lp3208
I75
aI574
aI77
atp3209
aa(lp3210
((lp3211
I235
aI375
aI259
a(lp3212
I465
aI628
aI360
aI194
atp3213
aa(lp3214
((lp3215
I483
aI173
a(lp3216
I465
aI479
aI333
aI612
atp3217
aa(lp3218
((lp3219
I374
aI173
aI355
a(lp3220
I465
aI594
aI194
aI497
atp3221
aa(lp3222
((lp3223
I465
a(lp3224
I431
aI462
aI594
atp3225
aa(lp3226
a(lp3227
((lp3228
I53
aI259
a(lp3229
I465
aI383
aI357
aI147
atp3230
aa(lp3231
((lp3232
I483
aI355
a(lp3233
I465
aI594
aI190
aI94
atp3234
aa(lp3235
((lp3236
I326
aI146
aI355
a(lp3237
I465
aI396
aI434
aI594
atp3238
aa(lp3239
((lp3240
I53
aI355
a(lp3241
I465
aI594
aI209
aI87
atp3242
aa(lp3243
((lp3244
I465
a(lp3245
I594
aI99
aI430
atp3246
aa(lp3247
((lp3248
I477
aI173
aI578
a(lp3249
I465
aI211
aI340
aI293
atp3250
aa(lp3251
((lp3252
I477
aI173
aI578
a(lp3253
I465
aI594
aI44
aI591
atp3254
aa(lp3255
((lp3256
I235
aI157
aI355
a(lp3257
I465
aI594
aI580
aI512
atp3258
aa(lp3259
((lp3260
I53
aI259
a(lp3261
I465
aI594
aI526
aI161
atp3262
aa(lp3263
a(lp3264
((lp3265
I235
aI493
aI355
a(lp3266
I465
aI594
aI310
aI614
atp3267
aa(lp3268
((lp3269
I465
a(lp3270
I147
aI384
aI203
atp3271
aa(lp3272
((lp3273
I477
aI355
aI578
a(lp3274
I465
aI547
aI363
aI512
atp3275
aa(lp3276
((lp3277
I374
aI173
aI355
a(lp3278
I465
aI116
aI443
aI98
atp3279
aa(lp3280
((lp3281
I477
aI259
aI291
a(lp3282
I465
aI116
aI342
aI130
atp3283
aa(lp3284
((lp3285
I465
a(lp3286
I594
aI52
aI46
atp3287
aa(lp3288
((lp3289
I326
aI187
aI173
a(lp3290
I465
aI116
aI611
aI227
atp3291
aa(lp3292
((lp3293
I477
aI173
aI578
a(lp3294
I465
aI594
aI46
aI99
atp3295
aa(lp3296
((lp3297
I53
aI355
a(lp3298
I465
aI540
aI85
aI594
atp3299
aa(lp3300
((lp3301
I374
aI173
aI355
a(lp3302
I465
aI580
aI594
aI331
atp3303
aa(lp3304
((lp3305
I326
aI501
aI173
a(lp3306
I465
aI117
aI363
aI37
atp3307
aa(lp3308
a(lp3309
a(lp3310
((lp3311
I465
a(lp3312
I594
aI383
aI99
atp3313
aa(lp3314
((lp3315
I483
aI259
a(lp3316
I465
aI572
aI68
aI614
atp3317
aa(lp3318
((lp3319
I483
aI259
a(lp3320
I465
aI255
aI286
aI150
atp3321
aa(lp3322
((lp3323
I477
aI355
aI578
a(lp3324
I465
aI32
aI261
aI116
atp3325
aa(lp3326
((lp3327
I374
aI259
aI355
a(lp3328
I465
aI147
aI99
aI358
atp3329
aa(lp3330
((lp3331
I465
a(lp3332
I147
aI436
aI591
atp3333
aa(lp3334
((lp3335
I374
aI173
aI355
a(lp3336
I465
aI147
aI103
aI434
atp3337
aa(lp3338
((lp3339
I477
aI173
aI291
a(lp3340
I465
aI564
aI363
aI312
atp3341
aa(lp3342
((lp3343
I326
aI215
aI173
a(lp3344
I465
aI273
aI537
aI123
atp3345
aa(lp3346
((lp3347
I235
aI369
aI355
a(lp3348
I465
aI277
aI147
aI369
atp3349
aa(lp3350
((lp3351
I374
aI173
aI259
a(lp3352
I465
aI192
aI5
aI116
atp3353
aa(lp3354
((lp3355
I374
aI173
aI259
a(lp3356
I465
aI574
aI594
aI41
atp3357
aa(lp3358
((lp3359
I465
a(lp3360
I378
aI530
aI594
atp3361
aa(lp3362
((lp3363
I374
aI173
aI355
a(lp3364
I465
aI594
aI2
aI150
atp3365
aa(lp3366
((lp3367
I374
aI259
aI355
a(lp3368
I465
aI360
aI363
aI312
atp3369
aa(lp3370
((lp3371
I235
aI493
aI355
a(lp3372
I465
aI147
aI383
aI2
atp3373
aa(lp3374
a(lp3375
((lp3376
I326
aI183
aI259
a(lp3377
I465
aI594
aI574
aI312
atp3378
aa(lp3379
((lp3380
I483
aI173
a(lp3381
I465
aI229
aI337
aI594
atp3382
aa(lp3383
((lp3384
I326
aI366
aI355
a(lp3385
I465
aI551
aI166
aI36
atp3386
aa(lp3387
((lp3388
I477
aI173
aI578
a(lp3389
I465
aI594
aI178
aI93
atp3390
aa(lp3391
((lp3392
I465
a(lp3393
I463
aI178
aI116
atp3394
aa(lp3395
((lp3396
I374
aI173
aI355
a(lp3397
I465
aI147
aI310
aI239
atp3398
aa(lp3399
((lp3400
I374
aI173
aI355
a(lp3401
I465
aI156
aI28
aI36
atp3402
aa(lp3403
((lp3404
I465
a(lp3405
I594
aI574
aI178
atp3406
aa(lp3407
((lp3408
I374
aI173
aI355
a(lp3409
I465
aI594
aI363
aI540
atp3410
aa(lp3411
((lp3412
I326
aI193
aI173
a(lp3413
I465
aI594
aI109
aI614
atp3414
aa(lp3415
((lp3416
I477
aI355
aI578
a(lp3417
I465
aI499
aI232
aI388
atp3418
aa(lp3419
((lp3420
I374
aI173
aI259
a(lp3421
I465
aI594
aI383
aI462
atp3422
aa(lp3423
((lp3424
I465
a(lp3425
I349
aI312
aI612
atp3426
aa(lp3427
((lp3428
I465
a(lp3429
I116
aI443
aI98
atp3430
aa(lp3431
((lp3432
I477
aI173
aI578
a(lp3433
I465
aI239
aI310
aI147
atp3434
aa(lp3435
((lp3436
I374
aI259
aI355
a(lp3437
I465
aI453
aI594
aI273
atp3438
aa(lp3439
((lp3440
I53
aI355
a(lp3441
I465
aI36
aI28
aI156
atp3442
aa(lp3443
((lp3444
I53
aI259
a(lp3445
I465
aI594
aI587
aI574
atp3446
aa(lp3447
((lp3448
I477
aI355
aI578
a(lp3449
I465
aI594
aI587
aI161
atp3450
aa(lp3451
((lp3452
I235
aI6
aI259
a(lp3453
I465
aI28
aI586
aI492
atp3454
aa(lp3455
((lp3456
I235
aI199
aI259
a(lp3457
I465
aI28
aI315
aI492
atp3458
aa(lp3459
((lp3460
I374
aI259
aI355
a(lp3461
I465
aI274
aI540
aI486
atp3462
aa(lp3463
((lp3464
I374
aI173
aI355
a(lp3465
I465
aI378
aI363
aI594
atp3466
aa(lp3467
((lp3468
I465
a(lp3469
I594
aI209
aI397
atp3470
aa(lp3471
a(lp3472
((lp3473
I235
aI198
aI355
a(lp3474
I465
aI594
aI312
aI150
atp3475
aa(lp3476
((lp3477
I465
a(lp3478
I594
aI363
aI378
atp3479
aa(lp3480
((lp3481
I374
aI173
aI259
a(lp3482
I465
aI594
aI232
aI531
atp3483
aa(lp3484
((lp3485
I326
aI228
aI355
a(lp3486
I465
aI54
aI363
aI416
atp3487
aa(lp3488
((lp3489
I477
aI259
aI291
a(lp3490
I465
aI551
aI166
aI581
atp3491
aa(lp3492
((lp3493
I374
aI259
aI355
a(lp3494
I465
aI594
aI77
aI574
atp3495
aa(lp3496
((lp3497
I477
aI173
aI578
a(lp3498
I465
aI594
aI433
aI466
atp3499
aa(lp3500
a(lp3501
((lp3502
I374
aI173
aI355
a(lp3503
I465
aI116
aI290
aI363
atp3504
aa(lp3505
((lp3506
I53
aI173
a(lp3507
I465
aI143
aI285
aI377
atp3508
aa(lp3509
((lp3510
I477
aI173
aI578
a(lp3511
I465
aI147
aI579
aI470
atp3512
aa(lp3513
((lp3514
I374
aI173
aI259
a(lp3515
I465
aI579
aI470
atp3516
aa(lp3517
((lp3518
I465
a(lp3519
I594
aI383
aI202
atp3520
aa(lp3521
((lp3522
I235
aI428
aI259
a(lp3523
I465
aI116
aI202
aI363
atp3524
aa(lp3525
((lp3526
I483
aI355
a(lp3527
I465
aI99
aI594
aI26
atp3528
aa(lp3529
((lp3530
I53
aI259
a(lp3531
I465
aI594
aI421
aI614
atp3532
aa(lp3533
((lp3534
I465
a(lp3535
I594
aI587
aI312
atp3536
aa(lp3537
((lp3538
I477
aI259
aI578
a(lp3539
I465
aI2
aI594
aI462
atp3540
aa(lp3541
((lp3542
I326
aI356
aI259
a(lp3543
I465
aI453
aI594
atp3544
aa(lp3545
((lp3546
I477
aI259
aI578
a(lp3547
I465
aI103
aI513
aI147
atp3548
aa(lp3549
((lp3550
I326
aI445
aI259
a(lp3551
I465
aI594
aI8
aI526
atp3552
aa(lp3553
((lp3554
I483
aI173
a(lp3555
I465
aI349
aI58
aI418
atp3556
aa(lp3557
((lp3558
I53
aI355
a(lp3559
I465
aI594
aI23
aI336
atp3560
aa(lp3561
((lp3562
I374
aI173
aI259
a(lp3563
I465
aI333
aI594
aI202
atp3564
aa(lp3565
((lp3566
I465
a(lp3567
I594
aI2
atp3568
aa(lp3569
a(lp3570
((lp3571
I235
aI359
aI355
a(lp3572
I465
aI540
aI594
aI97
atp3573
aa(lp3574
((lp3575
I374
aI173
aI259
a(lp3576
I465
aI178
aI463
aI116
atp3577
aa(lp3578
((lp3579
I374
aI173
aI355
a(lp3580
I465
aI594
aI103
aI362
atp3581
aa(lp3582
((lp3583
I235
aI531
aI355
a(lp3584
I465
aI594
aI198
aI531
atp3585
aa(lp3586
((lp3587
I483
aI355
a(lp3588
I465
aI217
aI611
aI227
atp3589
aa(lp3590
((lp3591
I235
aI447
aI259
a(lp3592
I465
aI466
aI396
aI594
atp3593
aa(lp3594
((lp3595
I235
aI574
aI355
a(lp3596
I465
aI594
aI143
aI574
atp3597
aa(lp3598
((lp3599
I483
aI259
a(lp3600
I465
aI594
aI31
aI312
atp3601
aa(lp3602
((lp3603
I235
aI104
aI355
a(lp3604
I465
aI594
aI526
aI104
atp3605
aa(lp3606
((lp3607
I326
aI0
aI173
a(lp3608
I465
aI210
aI594
aI574
atp3609
aa(lp3610
((lp3611
I326
aI418
aI259
a(lp3612
I465
aI594
aI202
aI104
atp3613
aa(lp3614
a(lp3615
((lp3616
I326
aI49
aI173
a(lp3617
I465
aI594
aI574
aI77
atp3618
aa(lp3619
((lp3620
I477
aI259
aI578
a(lp3621
I465
aI453
aI273
aI594
atp3622
aa(lp3623
((lp3624
I374
aI259
aI355
a(lp3625
I465
aI423
aI268
aI92
atp3626
aa(lp3627
((lp3628
I465
a(lp3629
I452
aI592
aI434
atp3630
aa(lp3631
((lp3632
I374
aI173
aI355
a(lp3633
I465
aI350
aI147
aI392
atp3634
aa(lp3635
((lp3636
I477
aI173
aI578
a(lp3637
I465
aI594
aI363
aI612
atp3638
aa(lp3639
((lp3640
I326
aI9
aI355
a(lp3641
I465
aI209
aI594
aI363
atp3642
aa(lp3643
((lp3644
I477
aI173
aI578
a(lp3645
I465
aI594
aI363
aI612
atp3646
aa(lp3647
((lp3648
I465
a(lp3649
I594
aI273
aI143
atp3650
aa(lp3651
((lp3652
I374
aI259
aI355
a(lp3653
I465
aI594
aI222
aI540
atp3654
aa(lp3655
((lp3656
I326
aI143
aI259
a(lp3657
I465
aI594
aI143
aI46
atp3658
aa(lp3659
((lp3660
I477
aI259
aI578
a(lp3661
I465
aI431
aI462
aI594
atp3662
aa(lp3663
((lp3664
I374
aI173
aI355
a(lp3665
I465
aI429
aI363
aI339
atp3666
aa(lp3667
((lp3668
I477
aI355
aI578
a(lp3669
I465
aI147
aI312
aI531
atp3670
aa(lp3671
((lp3672
I53
aI173
a(lp3673
I465
aI143
aI594
aI35
atp3674
aa(lp3675
((lp3676
I465
a(lp3677
I167
aI574
aI77
atp3678
aa(lp3679
a(lp3680
((lp3681
I374
aI173
aI259
a(lp3682
I465
aI594
aI20
aI462
atp3683
aa(lp3684
((lp3685
I326
aI380
aI355
a(lp3686
I465
aI28
aI209
aI267
atp3687
aa(lp3688
((lp3689
I235
aI375
aI259
a(lp3690
I465
aI628
aI360
aI194
atp3691
aa(lp3692
((lp3693
I483
aI259
a(lp3694
I465
aI147
aI351
aI559
atp3695
aa(lp3696
((lp3697
I465
a(lp3698
I383
aI267
atp3699
aa(lp3700
((lp3701
I477
aI355
aI291
a(lp3702
I465
aI447
aI526
aI180
atp3703
aa(lp3704
((lp3705
I53
aI259
a(lp3706
I465
aI383
aI594
aI363
atp3707
aa(lp3708
a(lp3709
((lp3710
I53
aI355
a(lp3711
I465
aI594
aI383
aI104
atp3712
aa(lp3713
((lp3714
I235
aI343
aI355
a(lp3715
I465
aI594
aI99
aI312
atp3716
aa(lp3717
((lp3718
I477
aI173
aI578
a(lp3719
I465
aI340
aI594
aI545
atp3720
aa(lp3721
((lp3722
I235
aI627
aI259
a(lp3723
I465
aI470
aI579
atp3724
aa(lp3725
a(lp3726
((lp3727
I374
aI173
aI259
a(lp3728
I465
aI418
aI464
aI2
atp3729
aa(lp3730
((lp3731
I53
aI355
a(lp3732
I465
aI584
aI340
aI147
atp3733
aa(lp3734
((lp3735
I235
aI363
aI259
a(lp3736
I465
aI153
aI363
aI429
atp3737
aa(lp3738
((lp3739
I326
aI181
aI259
a(lp3740
I465
aI594
aI24
aI46
atp3741
aa(lp3742
((lp3743
I235
aI198
aI259
a(lp3744
I465
aI594
aI198
aI93
atp3745
aa(lp3746
((lp3747
I326
aI627
aI173
a(lp3748
I465
aI594
aI363
aI531
atp3749
aa(lp3750
((lp3751
I477
aI173
aI578
a(lp3752
I465
aI116
aI526
aI363
atp3753
aa(lp3754
((lp3755
I53
aI259
a(lp3756
I465
aI526
aI594
aI584
atp3757
aa(lp3758
((lp3759
I483
aI355
a(lp3760
I465
aI284
aI312
aI540
atp3761
aa(lp3762
((lp3763
I374
aI259
aI355
a(lp3764
I465
aI143
aI594
aI99
atp3765
aa(lp3766
((lp3767
I465
a(lp3768
I466
aI396
aI594
atp3769
aa(lp3770
((lp3771
I465
a(lp3772
I594
aI2
aI239
atp3773
aa(lp3774
((lp3775
I53
aI355
a(lp3776
I465
aI594
aI194
aI462
atp3777
aa(lp3778
((lp3779
I53
aI259
a(lp3780
I465
aI333
aI116
aI103
atp3781
aa(lp3782
((lp3783
I235
aI375
aI259
a(lp3784
I465
aI436
aI115
aI481
atp3785
aa(lp3786
a(lp3787
((lp3788
I235
aI99
aI355
a(lp3789
I465
aI48
aI387
aI99
atp3790
aa(lp3791
((lp3792
I53
aI259
a(lp3793
I465
aI594
aI198
aI93
atp3794
aa(lp3795
((lp3796
I374
aI259
aI173
a(lp3797
I465
aI592
aI452
aI434
atp3798
aa(lp3799
a(lp3800
((lp3801
I483
aI259
a(lp3802
I465
aI390
aI518
aI418
atp3803
aa(lp3804
((lp3805
I477
aI259
aI291
a(lp3806
I465
aI116
aI342
aI130
atp3807
aa(lp3808
a(lp3809
((lp3810
I465
a(lp3811
I594
aI363
aI8
atp3812
aa(lp3813
((lp3814
I53
aI355
a(lp3815
I465
aI310
aI147
aI21
atp3816
aa(lp3817
((lp3818
I465
a(lp3819
I584
aI274
aI526
atp3820
aa(lp3821
((lp3822
I53
aI173
a(lp3823
I465
aI312
aI594
aI614
atp3824
aa(lp3825
((lp3826
I465
a(lp3827
I464
aI418
aI60
atp3828
aa(lp3829
((lp3830
I53
aI355
a(lp3831
I465
aI110
aI267
aI383
atp3832
aa(lp3833
((lp3834
I374
aI259
aI355
a(lp3835
I465
aI147
aI559
aI351
atp3836
aa(lp3837
((lp3838
I483
aI259
a(lp3839
I465
aI202
aI402
aI490
atp3840
aa(lp3841
((lp3842
I477
aI173
aI578
a(lp3843
I465
aI594
aI559
aI351
atp3844
aa(lp3845
((lp3846
I374
aI259
aI355
a(lp3847
I465
aI577
aI273
aI594
atp3848
aa(lp3849
a(lp3850
((lp3851
I465
a(lp3852
I110
aI267
aI383
atp3853
aa(lp3854
((lp3855
I465
a(lp3856
I116
aI247
aI304
atp3857
aa(lp3858
((lp3859
I374
aI173
aI355
a(lp3860
I465
aI475
aI202
aI584
atp3861
aa(lp3862
((lp3863
I374
aI259
aI355
a(lp3864
I465
aI286
aI202
aI143
atp3865
aa(lp3866
((lp3867
I465
a(lp3868
I443
aI103
aI594
atp3869
aa(lp3870
((lp3871
I477
aI355
aI578
a(lp3872
I465
aI545
aI594
aI574
atp3873
aa(lp3874
((lp3875
I326
aI37
aI355
a(lp3876
I465
aI443
aI427
aI274
atp3877
aa(lp3878
((lp3879
I374
aI173
aI355
a(lp3880
I465
aI594
aI363
aI540
atp3881
aa(lp3882
((lp3883
I235
aI466
aI355
a(lp3884
I465
aI436
aI115
aI285
atp3885
aa(lp3886
((lp3887
I235
aI333
aI355
a(lp3888
I465
aI423
aI596
aI268
atp3889
aa(lp3890
((lp3891
I483
aI259
a(lp3892
I465
aI202
aI402
aI490
atp3893
aa(lp3894
((lp3895
I326
aI198
aI259
a(lp3896
I465
aI527
aI387
aI132
atp3897
aa(lp3898
((lp3899
I483
aI259
a(lp3900
I465
aI383
aI619
aI147
atp3901
aa(lp3902
((lp3903
I374
aI173
aI259
a(lp3904
I465
aI594
aI526
aI584
atp3905
aa(lp3906
((lp3907
I465
a(lp3908
I114
aI116
aI247
atp3909
aa(lp3910
a(lp3911
((lp3912
I465
a(lp3913
I499
aI2
aI594
atp3914
aa(lp3915
((lp3916
I477
aI259
aI291
a(lp3917
I465
aI594
aI457
atp3918
aa(lp3919
((lp3920
I477
aI173
aI578
a(lp3921
I465
aI51
atp3922
aa(lp3923
((lp3924
I235
aI21
aI355
a(lp3925
I465
aI594
aI311
aI21
atp3926
aa(lp3927
a(lp3928
((lp3929
I235
aI541
aI259
a(lp3930
I465
aI594
aI503
aI87
atp3931
aa(lp3932
((lp3933
I374
aI259
aI355
a(lp3934
I465
aI86
aI299
aI312
atp3935
aa(lp3936
((lp3937
I465
a(lp3938
I594
aI99
aI430
atp3939
aa(lp3940
((lp3941
I326
aI273
aI259
a(lp3942
I465
aI594
aI99
aI363
atp3943
aa(lp3944
((lp3945
I235
aI95
aI355
a(lp3946
I465
aI594
aI99
aI210
atp3947
aa(lp3948
a(lp3949
((lp3950
I374
aI173
aI355
a(lp3951
I465
aI551
aI520
aI134
atp3952
aa(lp3953
a(lp3954
((lp3955
I326
aI17
aI259
a(lp3956
I465
aI594
aI310
aI540
atp3957
aa(lp3958
((lp3959
I53
aI355
a(lp3960
I465
aI594
aI143
aI312
atp3961
aa(lp3962
((lp3963
I374
aI259
aI355
a(lp3964
I465
aI594
aI309
aI153
atp3965
aa(lp3966
((lp3967
I53
aI355
a(lp3968
I465
aI594
aI312
aI434
atp3969
aa(lp3970
((lp3971
I235
aI383
aI173
a(lp3972
I465
aI383
aI116
aI150
atp3973
aa(lp3974
a(lp3975
((lp3976
I235
aI186
aI355
a(lp3977
I465
aI147
aI99
aI186
atp3978
aa(lp3979
((lp3980
I465
a(lp3981
I594
aI622
aI2
atp3982
aa(lp3983
((lp3984
I483
aI355
a(lp3985
I465
aI594
aI340
aI270
atp3986
aa(lp3987
a(lp3988
((lp3989
I235
aI463
aI355
a(lp3990
I465
aI274
aI486
aI540
atp3991
aa(lp3992
((lp3993
I374
aI173
aI355
a(lp3994
I465
aI365
aI99
aI400
atp3995
aa(lp3996
((lp3997
I477
aI173
aI578
a(lp3998
I465
aI594
aI333
atp3999
aa(lp4000
((lp4001
I465
a(lp4002
I167
aI574
aI77
atp4003
aa(lp4004
((lp4005
I326
aI198
aI355
a(lp4006
I465
aI171
aI446
aI312
atp4007
aa(lp4008
((lp4009
I53
aI355
a(lp4010
I465
aI192
aI102
aI594
atp4011
aa(lp4012
((lp4013
I374
aI173
aI355
a(lp4014
I465
aI147
aI582
aI403
atp4015
aa(lp4016
((lp4017
I235
aI359
aI355
a(lp4018
I465
aI331
aI594
aI580
atp4019
aa(lp4020
((lp4021
I477
aI173
aI578
a(lp4022
I465
aI2
aI466
atp4023
aa(lp4024
((lp4025
I326
aI187
aI355
a(lp4026
I465
aI220
aI366
aI52
atp4027
aa(lp4028
((lp4029
I465
a(lp4030
I248
aI510
atp4031
aa(lp4032
((lp4033
I465
a(lp4034
I399
aI383
aI99
atp4035
aa(lp4036
((lp4037
I477
aI259
aI578
a(lp4038
I465
aI594
aI143
aI584
atp4039
aa(lp4040
((lp4041
I326
aI205
aI173
a(lp4042
I465
aI545
aI363
aI594
atp4043
aa(lp4044
((lp4045
I465
a(lp4046
I116
aI210
aI383
atp4047
aa(lp4048
((lp4049
I53
aI355
a(lp4050
I465
aI594
aI383
aI104
atp4051
aa(lp4052
((lp4053
I374
aI173
aI259
a(lp4054
I465
aI143
aI594
aI574
atp4055
aa(lp4056
((lp4057
I326
aI356
aI355
a(lp4058
I465
aI594
aI615
aI531
atp4059
aa(lp4060
((lp4061
I374
aI173
aI259
a(lp4062
I465
aI517
aI390
atp4063
aa(lp4064
((lp4065
I326
aI49
aI259
a(lp4066
I465
aI319
aI261
aI18
atp4067
aa(lp4068
((lp4069
I477
aI173
aI578
a(lp4070
I465
aI28
aI361
aI492
atp4071
aa(lp4072
((lp4073
I53
aI355
a(lp4074
I465
aI594
aI496
aI443
atp4075
aa(lp4076
((lp4077
I465
a(lp4078
I269
aI526
aI343
atp4079
aa(lp4080
((lp4081
I326
aI205
aI173
a(lp4082
I465
aI545
aI363
aI594
atp4083
aa(lp4084
((lp4085
I465
a(lp4086
I594
aI23
aI260
atp4087
aa(lp4088
((lp4089
I465
a(lp4090
I594
aI99
aI584
atp4091
aa(lp4092
((lp4093
I465
a(lp4094
I594
aI333
aI584
atp4095
aa(lp4096
((lp4097
I326
aI602
aI355
a(lp4098
I465
aI312
aI64
aI594
atp4099
aa(lp4100
((lp4101
I465
a(lp4102
I594
aI213
aI178
atp4103
aa(lp4104
((lp4105
I465
a(lp4106
I33
aI590
atp4107
aa(lp4108
((lp4109
I477
aI355
aI578
a(lp4110
I465
aI463
aI147
aI318
atp4111
aa(lp4112
((lp4113
I53
aI259
a(lp4114
I465
aI333
aI594
aI103
atp4115
aa(lp4116
((lp4117
I235
aI524
aI173
a(lp4118
I465
aI594
aI333
aI202
atp4119
aa(lp4120
((lp4121
I465
a(lp4122
I594
aI23
aI260
atp4123
aa(lp4124
((lp4125
I326
aI187
aI173
a(lp4126
I465
aI28
aI589
aI198
atp4127
aa(lp4128
((lp4129
I374
aI173
aI259
a(lp4130
I465
aI594
aI143
aI574
atp4131
aa(lp4132
((lp4133
I477
aI355
aI578
a(lp4134
I465
aI497
aI194
aI594
atp4135
aa(lp4136
((lp4137
I477
aI259
aI578
a(lp4138
I465
aI110
aI103
aI147
atp4139
aa(lp4140
a(lp4141
((lp4142
I483
aI259
a(lp4143
I465
aI87
aI38
aI279
atp4144
aa(lp4145
((lp4146
I374
aI259
aI355
a(lp4147
I465
aI463
aI265
aI365
atp4148
aa(lp4149
((lp4150
I477
aI173
aI578
a(lp4151
I465
aI594
aI559
aI351
atp4152
aa(lp4153
((lp4154
I374
aI173
aI355
a(lp4155
I465
aI285
aI528
aI10
atp4156
aa(lp4157
((lp4158
I477
aI173
aI578
a(lp4159
I465
aI411
aI557
aI147
atp4160
aa(lp4161
((lp4162
I374
aI173
aI259
a(lp4163
I465
aI594
aI383
aI363
atp4164
aa(lp4165
((lp4166
I326
aI101
aI173
a(lp4167
I465
aI594
aI363
aI434
atp4168
aa(lp4169
((lp4170
I53
aI355
a(lp4171
I465
aI314
aI2
aI70
atp4172
aa(lp4173
((lp4174
I465
a(lp4175
I594
aI333
aI202
atp4176
aa(lp4177
((lp4178
I477
aI259
aI578
a(lp4179
I465
aI594
aI99
aI178
atp4180
aa(lp4181
((lp4182
I465
a(lp4183
I202
aI391
atp4184
aa(lp4185
((lp4186
I483
aI355
a(lp4187
I465
aI512
aI121
aI122
atp4188
aa(lp4189
((lp4190
I53
aI259
a(lp4191
I465
aI360
aI312
aI363
atp4192
aa(lp4193
((lp4194
I483
aI259
a(lp4195
I465
aI266
aI164
aI202
atp4196
aa(lp4197
((lp4198
I326
aI366
aI355
a(lp4199
I465
aI116
aI574
aI531
atp4200
aa(lp4201
((lp4202
I477
aI355
aI578
a(lp4203
I465
aI594
aI44
aI46
atp4204
aa(lp4205
((lp4206
I465
a(lp4207
I273
aI594
aI130
atp4208
aa(lp4209
((lp4210
I374
aI173
aI259
a(lp4211
I465
aI209
aI594
aI397
atp4212
aa(lp4213
((lp4214
I374
aI173
aI355
a(lp4215
I465
aI594
aI64
aI312
atp4216
aa(lp4217
((lp4218
I477
aI173
aI578
a(lp4219
I465
aI116
aI363
aI184
atp4220
aa(lp4221
((lp4222
I374
aI173
aI259
a(lp4223
I465
aI592
aI452
aI434
atp4224
aa(lp4225
((lp4226
I477
aI259
aI578
a(lp4227
I465
aI594
aI587
aI466
atp4228
aa(lp4229
((lp4230
I477
aI173
aI578
a(lp4231
I465
aI574
aI451
aI343
atp4232
aa(lp4233
((lp4234
I235
aI269
aI173
a(lp4235
I465
aI269
aI526
aI343
atp4236
aa(lp4237
((lp4238
I374
aI259
aI355
a(lp4239
I465
aI383
aI424
aI147
atp4240
aa(lp4241
((lp4242
I477
aI259
aI291
a(lp4243
I465
aI594
aI73
aI540
atp4244
aa(lp4245
((lp4246
I326
aI380
aI259
a(lp4247
I465
aI594
aI499
aI462
atp4248
aa(lp4249
a(lp4250
((lp4251
I465
a(lp4252
I594
aI383
aI21
atp4253
aa(lp4254
((lp4255
I374
aI173
aI259
a(lp4256
I465
aI116
aI130
atp4257
aa(lp4258
((lp4259
I374
aI259
aI355
a(lp4260
I465
aI255
aI293
aI150
atp4261
aa(lp4262
((lp4263
I374
aI355
aI259
a(lp4264
I465
aI114
aI116
aI247
atp4265
aa(lp4266
((lp4267
I477
aI355
aI578
a(lp4268
I465
aI594
aI2
aI239
atp4269
aa(lp4270
((lp4271
I465
a(lp4272
I594
aI310
aI247
atp4273
aa(lp4274
((lp4275
I53
aI259
a(lp4276
I465
aI116
aI202
aI247
atp4277
aa(lp4278
((lp4279
I235
aI65
aI259
a(lp4280
I465
aI314
aI2
aI620
atp4281
aa(lp4282
a(lp4283
((lp4284
I483
aI173
a(lp4285
I465
aI594
aI198
aI531
atp4286
aa(lp4287
a(lp4288
((lp4289
I326
aI49
aI355
a(lp4290
I465
aI540
aI85
aI116
atp4291
aa(lp4292
((lp4293
I53
aI355
a(lp4294
I465
aI630
aI552
aI80
atp4295
aa(lp4296
((lp4297
I374
aI173
aI355
a(lp4298
I465
aI594
aI310
aI614
atp4299
aa(lp4300
((lp4301
I326
aI272
aI355
a(lp4302
I465
aI147
aI384
aI559
atp4303
aa(lp4304
((lp4305
I374
aI259
aI355
a(lp4306
I465
aI577
aI273
aI594
atp4307
aa(lp4308
((lp4309
I465
a(lp4310
I594
aI333
aI99
atp4311
aa(lp4312
((lp4313
I465
a(lp4314
I266
aI47
aI202
atp4315
aa(lp4316
((lp4317
I374
aI173
aI355
a(lp4318
I465
aI194
aI360
aI628
atp4319
aa(lp4320
a(lp4321
((lp4322
I235
aI257
aI259
a(lp4323
I465
aI574
aI116
aI247
atp4324
aa(lp4325
((lp4326
I374
aI173
aI355
a(lp4327
I465
aI594
aI38
aI87
atp4328
aa(lp4329
((lp4330
I465
a(lp4331
I99
aI399
aI383
atp4332
aa(lp4333
((lp4334
I326
aI272
aI355
a(lp4335
I465
aI147
aI384
aI559
atp4336
aa(lp4337
a(lp4338
((lp4339
I235
aI473
aI355
a(lp4340
I465
aI594
aI312
aI573
atp4341
aa(lp4342
((lp4343
I374
aI173
aI259
a(lp4344
I465
aI274
aI486
aI540
atp4345
aa(lp4346
((lp4347
I465
a(lp4348
I594
aI333
aI362
atp4349
aa(lp4350
((lp4351
I326
aI146
aI259
a(lp4352
I465
aI404
aI526
aI18
atp4353
aa(lp4354
((lp4355
I235
aI359
aI259
a(lp4356
I465
aI171
aI446
aI7
atp4357
aa(lp4358
((lp4359
I53
aI355
a(lp4360
I465
aI594
aI383
aI130
atp4361
aa(lp4362
((lp4363
I326
aI188
aI355
a(lp4364
I465
aI116
aI227
aI2
atp4365
aa(lp4366
((lp4367
I465
a(lp4368
I395
aI116
aI310
atp4369
aa(lp4370
((lp4371
I235
aI597
aI259
a(lp4372
I465
aI594
aI567
aI210
atp4373
aa(lp4374
((lp4375
I465
a(lp4376
I584
aI340
aI147
atp4377
aa(lp4378
((lp4379
I374
aI173
aI355
a(lp4380
I465
aI286
aI168
aI506
atp4381
aa(lp4382
((lp4383
I374
aI173
aI259
a(lp4384
I465
aI426
aI143
aI8
atp4385
aa(lp4386
((lp4387
I477
aI355
aI578
a(lp4388
I465
aI333
aI383
aI594
atp4389
aa(lp4390
((lp4391
I235
aI110
aI259
a(lp4392
I465
aI594
aI363
aI8
atp4393
aa(lp4394
((lp4395
I477
aI259
aI578
a(lp4396
I465
aI443
aI440
aI274
atp4397
aa(lp4398
((lp4399
I374
aI173
aI355
a(lp4400
I465
aI594
aI587
aI434
atp4401
aa(lp4402
a(lp4403
((lp4404
I465
a(lp4405
I540
aI376
aI312
atp4406
aa(lp4407
((lp4408
I477
aI259
aI578
a(lp4409
I465
aI537
aI526
aI363
atp4410
aa(lp4411
((lp4412
I326
aI146
aI259
a(lp4413
I465
aI455
aI537
aI405
atp4414
aa(lp4415
((lp4416
I477
aI259
aI578
a(lp4417
I465
aI2
aI594
aI462
atp4418
aa(lp4419
((lp4420
I53
aI173
a(lp4421
I465
aI574
aI594
aI363
atp4422
aa(lp4423
((lp4424
I374
aI173
aI259
a(lp4425
I465
aI594
aI333
aI584
atp4426
aa(lp4427
a(lp4428
((lp4429
I53
aI355
a(lp4430
I465
aI110
aI82
aI310
atp4431
aa(lp4432
((lp4433
I483
aI259
a(lp4434
I465
aI232
aI498
atp4435
aa(lp4436
((lp4437
I235
aI116
aI173
a(lp4438
I465
aI116
aI363
aI410
atp4439
aa(lp4440
((lp4441
I374
aI173
aI259
a(lp4442
I465
aI285
aI143
aI377
atp4443
aa(lp4444
((lp4445
I235
aI613
aI355
a(lp4446
I465
aI147
aI433
aI466
atp4447
aa(lp4448
((lp4449
I374
aI259
aI355
a(lp4450
I465
aI52
aI285
aI377
atp4451
aa(lp4452
((lp4453
I53
aI173
a(lp4454
I465
aI116
aI153
aI309
atp4455
aa(lp4456
((lp4457
I374
aI173
aI259
a(lp4458
I465
aI594
aI333
aI202
atp4459
aa(lp4460
((lp4461
I235
aI87
aI355
a(lp4462
I465
aI594
aI209
aI87
atp4463
aa(lp4464
((lp4465
I465
a(lp4466
I116
aI153
aI309
atp4467
aa(lp4468
((lp4469
I465
a(lp4470
I594
aI574
aI363
atp4471
aa(lp4472
((lp4473
I465
a(lp4474
I110
aI147
atp4475
aa(lp4476
((lp4477
I374
aI173
aI355
a(lp4478
I465
aI614
aI310
aI594
atp4479
aa(lp4480
((lp4481
I374
aI173
aI355
a(lp4482
I465
aI147
aI103
aI434
atp4483
aa(lp4484
((lp4485
I477
aI259
aI291
a(lp4486
I465
aI551
aI166
aI581
atp4487
aa(lp4488
((lp4489
I235
aI333
aI259
a(lp4490
I465
aI594
aI333
aI99
atp4491
aa(lp4492
((lp4493
I374
aI259
aI355
a(lp4494
I465
aI540
aI312
aI284
atp4495
aa(lp4496
((lp4497
I374
aI173
aI259
a(lp4498
I465
aI116
aI432
atp4499
aa(lp4500
((lp4501
I465
a(lp4502
I594
aI309
aI339
atp4503
aa(lp4504
((lp4505
I326
aI445
aI259
a(lp4506
I465
aI285
aI463
aI10
atp4507
aa(lp4508
((lp4509
I235
aI125
aI259
a(lp4510
I465
aI594
aI622
aI2
atp4511
aa(lp4512
((lp4513
I477
aI259
aI578
a(lp4514
I465
aI302
aI333
aI574
atp4515
aa(lp4516
((lp4517
I326
aI17
aI259
a(lp4518
I465
aI594
aI310
aI540
atp4519
aa(lp4520
((lp4521
I374
aI173
aI355
a(lp4522
I465
aI594
aI202
aI526
atp4523
aa(lp4524
((lp4525
I374
aI259
aI355
a(lp4526
I465
aI103
aI100
aI584
atp4527
aa(lp4528
((lp4529
I465
a(lp4530
I147
aI268
aI99
atp4531
aa(lp4532
((lp4533
I465
a(lp4534
I594
aI310
aI247
atp4535
aa(lp4536
((lp4537
I235
aI594
aI173
a(lp4538
I465
aI594
aI80
aI132
atp4539
aa(lp4540
((lp4541
I326
aI198
aI355
a(lp4542
I465
aI171
aI446
aI312
atp4543
aa(lp4544
((lp4545
I53
aI259
a(lp4546
I465
aI147
aI19
aI191
atp4547
aa(lp4548
((lp4549
I483
aI355
a(lp4550
I465
aI463
aI147
aI328
atp4551
aa(lp4552
((lp4553
I374
aI173
aI355
a(lp4554
I465
aI103
aI106
aI594
atp4555
aa(lp4556
((lp4557
I465
a(lp4558
I286
aI52
aI202
atp4559
aa(lp4560
((lp4561
I483
aI173
a(lp4562
I465
aI563
aI99
aI10
atp4563
aa(lp4564
((lp4565
I53
aI259
a(lp4566
I465
aI116
aI210
aI310
atp4567
aa(lp4568
((lp4569
I374
aI173
aI259
a(lp4570
I465
aI116
aI432
atp4571
aa(lp4572
((lp4573
I465
a(lp4574
I624
aI612
aI147
atp4575
aa(lp4576
((lp4577
I374
aI259
aI355
a(lp4578
I465
aI103
aI147
aI513
atp4579
aa(lp4580
((lp4581
I326
aI272
aI173
a(lp4582
I465
aI132
aI143
aI329
atp4583
aa(lp4584
((lp4585
I53
aI259
a(lp4586
I465
aI612
aI507
aI320
atp4587
aa(lp4588
((lp4589
I235
aI597
aI259
a(lp4590
I465
aI594
aI567
aI210
atp4591
aa(lp4592
((lp4593
I53
aI173
a(lp4594
I465
aI594
aI8
aI574
atp4595
aa(lp4596
((lp4597
I326
aI163
aI355
a(lp4598
I465
aI458
aI382
aI418
atp4599
aa(lp4600
((lp4601
I53
aI259
a(lp4602
I465
aI594
aI526
aI574
atp4603
aa(lp4604
((lp4605
I53
aI355
a(lp4606
I465
aI594
aI443
aI99
atp4607
aa(lp4608
((lp4609
I374
aI173
aI355
a(lp4610
I465
aI594
aI530
aI378
atp4611
aa(lp4612
((lp4613
I326
aI502
aI259
a(lp4614
I465
aI232
aI466
atp4615
aa(lp4616
((lp4617
I374
aI259
aI355
a(lp4618
I465
aI630
aI80
aI132
atp4619
aa(lp4620
((lp4621
I235
aI627
aI259
a(lp4622
I465
aI470
aI579
atp4623
aa(lp4624
((lp4625
I374
aI173
aI259
a(lp4626
I465
aI594
aI310
aI21
atp4627
aa(lp4628
((lp4629
I465
a(lp4630
I28
aI340
aI104
atp4631
aa(lp4632
((lp4633
I374
aI259
aI355
a(lp4634
I465
aI383
aI99
aI399
atp4635
aa(lp4636
((lp4637
I53
aI259
a(lp4638
I465
aI594
aI383
aI21
atp4639
aa(lp4640
((lp4641
I326
aI586
aI259
a(lp4642
I465
aI594
aI383
aI531
atp4643
aa(lp4644
((lp4645
I326
aI147
aI355
a(lp4646
I465
aI403
aI55
aI147
atp4647
aa(lp4648
((lp4649
I53
aI355
a(lp4650
I465
aI487
aI363
aI37
atp4651
aa(lp4652
((lp4653
I465
a(lp4654
I594
aI202
aI104
atp4655
aa(lp4656
((lp4657
I477
aI355
aI578
a(lp4658
I465
aI147
aI46
aI99
atp4659
aa(lp4660
((lp4661
I53
aI355
a(lp4662
I465
aI594
aI463
aI614
atp4663
aa(lp4664
((lp4665
I374
aI259
aI355
a(lp4666
I465
aI594
aI383
aI612
atp4667
aa(lp4668
((lp4669
I374
aI173
aI355
a(lp4670
I465
aI594
aI202
aI526
atp4671
aa(lp4672
((lp4673
I477
aI173
aI578
a(lp4674
I465
aI232
aI608
aI531
atp4675
aa(lp4676
((lp4677
I235
aI540
aI355
a(lp4678
I465
aI551
aI166
aI540
atp4679
aa(lp4680
((lp4681
I374
aI173
aI259
a(lp4682
I465
aI594
aI202
aI104
atp4683
aa(lp4684
((lp4685
I465
a(lp4686
I594
aI363
aI378
atp4687
aa(lp4688
((lp4689
I326
aI146
aI355
a(lp4690
I465
aI32
aI261
aI274
atp4691
aa(lp4692
((lp4693
I465
a(lp4694
I232
aI466
atp4695
aa(lp4696
((lp4697
I483
aI259
a(lp4698
I465
aI408
aI313
aI436
atp4699
aa(lp4700
((lp4701
I465
a(lp4702
I463
aI147
aI328
atp4703
aa(lp4704
((lp4705
I235
aI216
aI259
a(lp4706
I465
aI147
aI143
aI598
atp4707
aa(lp4708
((lp4709
I465
a(lp4710
I116
aI8
aI574
atp4711
aa(lp4712
((lp4713
I235
aI219
aI173
a(lp4714
I465
aI594
aI312
aI540
atp4715
aa(lp4716
a(lp4717
((lp4718
I235
aI333
aI259
a(lp4719
I465
aI147
aI333
atp4720
aa(lp4721
((lp4722
I465
a(lp4723
I310
aI363
aI170
atp4724
aa(lp4725
((lp4726
I235
aI623
aI259
a(lp4727
I465
aI594
aI491
aI363
atp4728
aa(lp4729
((lp4730
I53
aI355
a(lp4731
I465
aI116
aI8
aI574
atp4732
aa(lp4733
((lp4734
I465
a(lp4735
I273
aI594
aI130
atp4736
aa(lp4737
((lp4738
I374
aI173
aI355
a(lp4739
I465
aI284
aI312
aI540
atp4740
aa(lp4741
((lp4742
I483
aI355
a(lp4743
I465
aI499
aI232
aI139
atp4744
aa(lp4745
((lp4746
I465
a(lp4747
I466
aI396
aI594
atp4748
aa(lp4749
((lp4750
I53
aI355
a(lp4751
I465
aI116
aI526
aI383
atp4752
aa(lp4753
((lp4754
I477
aI259
aI578
a(lp4755
I465
aI443
aI440
aI274
atp4756
aa(lp4757
a(lp4758
((lp4759
I235
aI613
aI355
a(lp4760
I465
aI395
aI116
aI310
atp4761
aa(lp4762
((lp4763
I53
aI259
a(lp4764
I465
aI594
aI383
aI21
atp4765
aa(lp4766
((lp4767
I465
a(lp4768
I594
aI363
aI339
atp4769
aa(lp4770
a(lp4771
((lp4772
I465
a(lp4773
I594
aI77
aI574
atp4774
aa(lp4775
a(lp4776
a(lp4777
((lp4778
I326
aI183
aI259
a(lp4779
I465
aI594
aI574
aI312
atp4780
aa(lp4781
((lp4782
I326
aI272
aI355
a(lp4783
I465
aI147
aI384
aI559
atp4784
aa(lp4785
((lp4786
I326
aI239
aI173
a(lp4787
I465
aI594
aI363
aI312
atp4788
aa(lp4789
((lp4790
I374
aI355
aI259
a(lp4791
I465
aI360
aI363
aI312
atp4792
aa(lp4793
((lp4794
I465
a(lp4795
I594
aI383
aI540
atp4796
aa(lp4797
((lp4798
I326
aI570
aI259
a(lp4799
I465
aI495
aI594
aI614
atp4800
aa(lp4801
((lp4802
I374
aI173
aI355
a(lp4803
I465
aI147
aI310
aI239
atp4804
aa(lp4805
a(lp4806
a(lp4807
((lp4808
I235
aI202
aI259
a(lp4809
I465
aI594
aI202
aI150
atp4810
aa(lp4811
a(lp4812
((lp4813
I53
aI259
a(lp4814
I465
aI594
aI574
aI339
atp4815
aa(lp4816
((lp4817
I53
aI259
a(lp4818
I465
aI197
aI116
aI36
atp4819
aa(lp4820
((lp4821
I235
aI104
aI259
a(lp4822
I465
aI594
aI587
aI540
atp4823
aa(lp4824
((lp4825
I477
aI259
aI578
a(lp4826
I465
aI383
aI594
aI462
atp4827
aa(lp4828
((lp4829
I477
aI173
aI578
a(lp4830
I465
aI594
aI540
atp4831
aa(lp4832
((lp4833
I53
aI259
a(lp4834
I465
aI28
aI340
aI104
atp4835
aa(lp4836
((lp4837
I326
aI146
aI173
a(lp4838
I465
aI167
aI574
aI77
atp4839
aa(lp4840
((lp4841
I235
aI199
aI259
a(lp4842
I465
aI28
aI315
aI492
atp4843
aa(lp4844
((lp4845
I326
aI143
aI355
a(lp4846
I465
aI594
aI383
aI143
atp4847
aa(lp4848
((lp4849
I477
aI355
aI578
a(lp4850
I465
aI584
aI574
aI594
atp4851
aa(lp4852
((lp4853
I326
aI146
aI355
a(lp4854
I465
aI594
aI77
aI136
atp4855
aa(lp4856
((lp4857
I235
aI471
aI259
a(lp4858
I465
aI2
aI594
aI418
atp4859
aa(lp4860
((lp4861
I477
aI173
aI578
a(lp4862
I465
aI143
aI147
aI513
atp4863
aa(lp4864
((lp4865
I465
a(lp4866
I594
aI491
aI363
atp4867
aa(lp4868
((lp4869
I477
aI355
aI578
a(lp4870
I465
aI594
aI190
aI25
atp4871
aa(lp4872
((lp4873
I483
aI355
a(lp4874
I465
aI499
aI232
aI139
atp4875
aa(lp4876
((lp4877
I374
aI173
aI355
a(lp4878
I465
aI594
aI121
aI160
atp4879
aa(lp4880
((lp4881
I326
aI607
aI355
a(lp4882
I465
aI551
aI520
aI581
atp4883
aa(lp4884
a(lp4885
((lp4886
I374
aI173
aI259
a(lp4887
I465
aI594
aI580
aI331
atp4888
aa(lp4889
((lp4890
I477
aI173
aI578
a(lp4891
I465
aI594
aI178
aI531
atp4892
aa(lp4893
((lp4894
I477
aI355
aI578
a(lp4895
I465
aI116
aI526
aI267
atp4896
aa(lp4897
((lp4898
I477
aI355
aI578
a(lp4899
I465
aI451
aI340
aI343
atp4900
aa(lp4901
((lp4902
I374
aI173
aI355
a(lp4903
I465
aI545
aI594
aI340
atp4904
aa(lp4905
((lp4906
I465
a(lp4907
I594
aI178
aI339
atp4908
aa(lp4909
((lp4910
I374
aI173
aI259
a(lp4911
I465
aI594
aI540
aI97
atp4912
aa(lp4913
((lp4914
I374
aI173
aI259
a(lp4915
I465
aI147
aI224
aI598
atp4916
aa(lp4917
a(lp4918
((lp4919
I465
a(lp4920
I594
aI333
aI202
atp4921
aa(lp4922
((lp4923
I477
aI259
aI291
a(lp4924
I465
aI594
aI348
aI46
atp4925
aa(lp4926
((lp4927
I235
aI204
aI259
a(lp4928
I465
aI612
aI368
aI89
atp4929
aa(lp4930
((lp4931
I235
aI204
aI259
a(lp4932
I465
aI612
aI368
aI89
atp4933
aa(lp4934
((lp4935
I235
aI613
aI259
a(lp4936
I465
aI229
aI310
aI594
atp4937
aa(lp4938
((lp4939
I326
aI187
aI173
a(lp4940
I465
aI28
aI589
aI198
atp4941
aa(lp4942
((lp4943
I326
aI210
aI355
a(lp4944
I465
aI147
aI333
aI210
atp4945
aa(lp4946
((lp4947
I374
aI173
aI355
a(lp4948
I465
aI383
aI399
aI99
atp4949
aa(lp4950
((lp4951
I326
aI505
aI355
a(lp4952
I465
aI594
aI99
aI150
atp4953
aa(lp4954
((lp4955
I235
aI516
aI259
a(lp4956
I465
aI594
aI505
aI221
atp4957
aa(lp4958
((lp4959
I235
aI250
aI355
a(lp4960
I465
aI594
aI540
aI450
atp4961
aa(lp4962
((lp4963
I374
aI173
aI355
a(lp4964
I465
aI286
aI168
aI506
atp4965
aa(lp4966
a(lp4967
a(lp4968
((lp4969
I374
aI259
aI355
a(lp4970
I465
aI109
aI494
aI614
atp4971
aa(lp4972
((lp4973
I477
aI355
aI578
a(lp4974
I465
aI463
aI594
aI104
atp4975
aa(lp4976
((lp4977
I326
aI373
aI259
a(lp4978
I465
aI458
aI58
aI418
atp4979
aa(lp4980
((lp4981
I53
aI355
a(lp4982
I465
aI594
aI310
aI434
atp4983
aa(lp4984
a(lp4985
((lp4986
I465
a(lp4987
I130
aI274
atp4988
aa(lp4989
((lp4990
I326
aI1
aI355
a(lp4991
I465
aI147
aI143
aI210
atp4992
aa(lp4993
((lp4994
I465
a(lp4995
I594
aI340
aI211
atp4996
aa(lp4997
((lp4998
I53
aI173
a(lp4999
I465
aI594
aI574
aI247
atp5000
aa(lp5001
((lp5002
I53
aI259
a(lp5003
I465
aI109
aI614
aI494
atp5004
aa(lp5005
((lp5006
I477
aI173
aI578
a(lp5007
I465
aI594
aI383
aI2
atp5008
aa(lp5009
((lp5010
I374
aI259
aI355
a(lp5011
I465
aI171
aI312
aI446
atp5012
aa(lp5013
((lp5014
I235
aI375
aI355
a(lp5015
I465
aI116
aI383
aI375
atp5016
aa(lp5017
a(lp5018
((lp5019
I235
aI250
aI355
a(lp5020
I465
aI147
aI268
aI150
atp5021
aa(lp5022
((lp5023
I477
aI355
aI578
a(lp5024
I465
aI274
aI398
aI56
atp5025
aa(lp5026
((lp5027
I374
aI173
aI259
a(lp5028
I465
aI98
aI116
aI443
atp5029
aa(lp5030
((lp5031
I374
aI173
aI259
a(lp5032
I465
aI594
aI540
aI97
atp5033
aa(lp5034
((lp5035
I235
aI493
aI259
a(lp5036
I465
aI147
aI522
aI472
atp5037
aa(lp5038
((lp5039
I235
aI232
aI355
a(lp5040
I465
aI594
aI2
aI591
atp5041
aa(lp5042
((lp5043
I477
aI259
aI291
a(lp5044
I465
aI171
aI154
aI556
atp5045
aa(lp5046
((lp5047
I235
aI174
aI259
a(lp5048
I465
aI116
aI226
aI526
atp5049
aa(lp5050
((lp5051
I326
aI272
aI259
a(lp5052
I465
aI574
aI310
aI594
atp5053
aa(lp5054
((lp5055
I465
a(lp5056
I2
aI466
atp5057
aa(lp5058
((lp5059
I53
aI173
a(lp5060
I465
aI577
aI594
aI273
atp5061
aa(lp5062
((lp5063
I235
aI65
aI173
a(lp5064
I465
aI594
aI333
aI574
atp5065
aa(lp5066
((lp5067
I374
aI259
aI355
a(lp5068
I465
aI116
aI526
aI226
atp5069
aa(lp5070
((lp5071
I477
aI259
aI578
a(lp5072
I465
aI594
aI363
atp5073
aa(lp5074
((lp5075
I53
aI259
a(lp5076
I465
aI567
aI594
aI210
atp5077
aa(lp5078
((lp5079
I483
aI173
a(lp5080
I465
aI229
aI337
aI594
atp5081
aa(lp5082
((lp5083
I235
aI263
aI259
a(lp5084
I465
aI363
aI290
aI28
atp5085
aa(lp5086
((lp5087
I374
aI173
aI355
a(lp5088
I465
aI116
aI629
aI574
atp5089
aa(lp5090
((lp5091
I465
a(lp5092
I275
aI463
aI116
atp5093
aa(lp5094
((lp5095
I477
aI173
aI578
a(lp5096
I465
aI594
aI202
aI391
atp5097
aa(lp5098
((lp5099
I374
aI355
aI259
a(lp5100
I465
aI594
aI549
aI407
atp5101
aa(lp5102
((lp5103
I235
aI569
aI355
a(lp5104
I465
aI147
aI482
aI569
atp5105
aa(lp5106
((lp5107
I477
aI259
aI578
a(lp5108
I465
aI499
aI2
aI116
atp5109
aa(lp5110
((lp5111
I53
aI173
a(lp5112
I465
aI594
aI574
aI247
atp5113
aa(lp5114
((lp5115
I477
aI355
aI578
a(lp5116
I465
aI594
aI443
aI132
atp5117
aa(lp5118
((lp5119
I483
aI355
a(lp5120
I465
aI594
aI23
aI260
atp5121
aa(lp5122
((lp5123
I374
aI173
aI259
a(lp5124
I465
aI525
aI218
aI594
atp5125
aa(lp5126
((lp5127
I235
aI462
aI355
a(lp5128
I465
aI547
aI363
aI462
atp5129
aa(lp5130
((lp5131
I374
aI259
aI355
a(lp5132
I465
aI594
aI584
aI143
atp5133
aa(lp5134
((lp5135
I477
aI355
aI578
a(lp5136
I465
aI594
aI587
aI194
atp5137
aa(lp5138
((lp5139
I53
aI259
a(lp5140
I465
aI594
aI555
aI130
atp5141
aa(lp5142
((lp5143
I374
aI259
aI355
a(lp5144
I465
aI434
aI594
aI588
atp5145
aa(lp5146
((lp5147
I374
aI355
aI259
a(lp5148
I465
aI594
aI526
aI202
atp5149
aa(lp5150
((lp5151
I477
aI259
aI578
a(lp5152
I465
aI27
aI363
aI434
atp5153
aa(lp5154
((lp5155
I465
a(lp5156
I574
aI451
aI343
atp5157
aa(lp5158
((lp5159
I235
aI627
aI173
a(lp5160
I465
aI147
aI268
aI99
atp5161
aa(lp5162
((lp5163
I235
aI466
aI355
a(lp5164
I465
aI594
aI273
aI143
atp5165
aa(lp5166
((lp5167
I465
a(lp5168
I116
aI153
aI309
atp5169
aa(lp5170
((lp5171
I374
aI173
aI355
a(lp5172
I465
aI333
aI383
aI147
atp5173
aa(lp5174
((lp5175
I465
a(lp5176
I497
aI194
aI147
atp5177
aa(lp5178
a(lp5179
((lp5180
I53
aI259
a(lp5181
I465
aI286
aI143
aI202
atp5182
aa(lp5183
((lp5184
I465
a(lp5185
I594
aI622
aI2
atp5186
aa(lp5187
((lp5188
I235
aI157
aI355
a(lp5189
I465
aI594
aI580
aI512
atp5190
aa(lp5191
((lp5192
I53
aI173
a(lp5193
I465
aI116
aI213
aI178
atp5194
aa(lp5195
((lp5196
I326
aI163
aI355
a(lp5197
I465
aI310
aI363
aI116
atp5198
aa(lp5199
((lp5200
I326
aI575
aI355
a(lp5201
I465
aI612
aI368
aI401
atp5202
aa(lp5203
((lp5204
I477
aI259
aI578
a(lp5205
I465
aI8
aI268
aI332
atp5206
aa(lp5207
((lp5208
I53
aI259
a(lp5209
I465
aI594
aI198
aI93
atp5210
aa(lp5211
a(lp5212
((lp5213
I53
aI173
a(lp5214
I465
aI594
aI540
aI222
atp5215
aa(lp5216
((lp5217
I477
aI173
aI578
a(lp5218
I465
aI594
aI383
aI621
atp5219
aa(lp5220
((lp5221
I235
aI0
aI355
a(lp5222
I465
aI614
aI68
aI495
atp5223
aa(lp5224
((lp5225
I53
aI173
a(lp5226
I465
aI362
aI103
aI594
atp5227
aa(lp5228
((lp5229
I235
aI333
aI173
a(lp5230
I465
aI116
aI2
aI70
atp5231
aa(lp5232
((lp5233
I53
aI173
a(lp5234
I465
aI46
aI218
aI594
atp5235
aa(lp5236
((lp5237
I326
aI81
aI355
a(lp5238
I465
aI464
aI418
aI60
atp5239
aa(lp5240
((lp5241
I53
aI259
a(lp5242
I465
aI147
aI19
aI191
atp5243
aa(lp5244
((lp5245
I374
aI173
aI355
a(lp5246
I465
aI443
aI427
aI155
atp5247
aa(lp5248
((lp5249
I465
a(lp5250
I594
aI363
aI339
atp5251
aa(lp5252
((lp5253
I235
aI262
aI355
a(lp5254
I465
aI612
aI507
aI594
atp5255
aa(lp5256
a(lp5257
((lp5258
I483
aI259
a(lp5259
I465
aI383
aI542
aI147
atp5260
aa(lp5261
((lp5262
I374
aI173
aI355
a(lp5263
I465
aI378
aI363
aI594
atp5264
aa(lp5265
a(lp5266
((lp5267
I235
aI463
aI355
a(lp5268
I465
aI274
aI486
aI540
atp5269
aa(lp5270
((lp5271
I374
aI173
aI355
a(lp5272
I465
aI594
aI507
aI612
atp5273
aa(lp5274
((lp5275
I374
aI173
aI259
a(lp5276
I465
aI594
aI143
aI36
atp5277
aa(lp5278
((lp5279
I483
aI355
a(lp5280
I465
aI171
aI154
aI308
atp5281
aa(lp5282
((lp5283
I465
a(lp5284
I28
aI340
aI104
atp5285
aa(lp5286
a(lp5287
((lp5288
I465
a(lp5289
I594
aI526
aI540
atp5290
aa(lp5291
((lp5292
I235
aI359
aI259
a(lp5293
I465
aI171
aI446
aI7
atp5294
aa(lp5295
((lp5296
I53
aI259
a(lp5297
I465
aI594
aI310
aI339
atp5298
aa(lp5299
((lp5300
I477
aI355
aI578
a(lp5301
I465
aI383
aI147
aI466
atp5302
aa(lp5303
((lp5304
I374
aI173
aI355
a(lp5305
I465
aI531
aI574
aI594
atp5306
aa(lp5307
((lp5308
I235
aI418
aI259
a(lp5309
I465
aI470
aI415
atp5310
aa(lp5311
((lp5312
I374
aI259
aI355
a(lp5313
I465
aI594
aI310
aI247
atp5314
aa(lp5315
((lp5316
I374
aI173
aI355
a(lp5317
I465
aI180
aI526
aI447
atp5318
aa(lp5319
((lp5320
I326
aI256
aI259
a(lp5321
I465
aI116
aI531
aI333
atp5322
aa(lp5323
((lp5324
I326
aI210
aI355
a(lp5325
I465
aI147
aI333
aI210
atp5326
aa(lp5327
((lp5328
I326
aI163
aI355
a(lp5329
I465
aI458
aI382
aI418
atp5330
aa(lp5331
((lp5332
I374
aI173
aI259
a(lp5333
I465
aI274
aI486
aI540
atp5334
aa(lp5335
((lp5336
I374
aI173
aI259
a(lp5337
I465
aI99
aI383
aI399
atp5338
aa(lp5339
((lp5340
I53
aI259
a(lp5341
I465
aI116
aI209
aI8
atp5342
aa(lp5343
((lp5344
I465
a(lp5345
I594
aI312
aI462
atp5346
aa(lp5347
((lp5348
I235
aI383
aI259
a(lp5349
I465
aI594
aI383
aI247
atp5350
aa(lp5351
((lp5352
I374
aI173
aI355
a(lp5353
I465
aI116
aI443
aI98
atp5354
aa(lp5355
((lp5356
I235
aI428
aI259
a(lp5357
I465
aI116
aI202
aI363
atp5358
aa(lp5359
((lp5360
I465
a(lp5361
I594
aI526
aI104
atp5362
aa(lp5363
a(lp5364
((lp5365
I374
aI259
aI355
a(lp5366
I465
aI209
aI532
aI594
atp5367
aa(lp5368
((lp5369
I235
aI99
aI355
a(lp5370
I465
aI48
aI387
aI99
atp5371
aa(lp5372
((lp5373
I235
aI127
aI355
a(lp5374
I465
aI594
aI99
aI540
atp5375
aa(lp5376
((lp5377
I477
aI355
aI578
a(lp5378
I465
aI280
aI587
aI150
atp5379
aa(lp5380
((lp5381
I326
aI375
aI355
a(lp5382
I465
aI594
aI60
aI145
atp5383
aa(lp5384
((lp5385
I235
aI616
aI173
a(lp5386
I465
aI594
aI510
atp5387
aa(lp5388
a(lp5389
((lp5390
I483
aI259
a(lp5391
I465
aI266
aI164
aI202
atp5392
aa(lp5393
((lp5394
I326
aI103
aI355
a(lp5395
I465
aI594
aI143
aI612
atp5396
aa(lp5397
((lp5398
I483
aI355
a(lp5399
I465
aI147
aI463
aI318
atp5400
aa(lp5401
a(lp5402
a(lp5403
((lp5404
I483
aI259
a(lp5405
I465
aI147
aI351
aI559
atp5406
aa(lp5407
((lp5408
I465
a(lp5409
I594
aI209
aI160
atp5410
aa(lp5411
((lp5412
I235
aI251
aI259
a(lp5413
I465
aI116
aI69
aI130
atp5414
aa(lp5415
((lp5416
I374
aI259
aI355
a(lp5417
I465
aI209
aI532
aI594
atp5418
aa(lp5419
((lp5420
I465
a(lp5421
I574
aI451
aI343
atp5422
aa(lp5423
((lp5424
I465
a(lp5425
I594
aI333
aI574
atp5426
aa(lp5427
((lp5428
I374
aI173
aI259
a(lp5429
I465
aI340
aI451
aI343
atp5430
aa(lp5431
((lp5432
I235
aI312
aI259
a(lp5433
I465
aI360
aI312
aI363
atp5434
aa(lp5435
((lp5436
I374
aI173
aI355
a(lp5437
I465
aI574
aI594
aI540
atp5438
aa(lp5439
a(lp5440
((lp5441
I235
aI199
aI259
a(lp5442
I465
aI111
aI65
aI37
atp5443
aa(lp5444
((lp5445
I465
a(lp5446
I147
aI202
aI356
atp5447
aa(lp5448
((lp5449
I235
aI3
aI259
a(lp5450
I465
aI594
aI178
aI612
atp5451
aa(lp5452
((lp5453
I53
aI259
a(lp5454
I465
aI594
aI526
aI434
atp5455
aa(lp5456
((lp5457
I235
aI262
aI355
a(lp5458
I465
aI612
aI507
aI594
atp5459
aa(lp5460
((lp5461
I374
aI259
aI355
a(lp5462
I465
aI505
aI383
aI417
atp5463
aa(lp5464
((lp5465
I326
aI79
aI173
a(lp5466
I465
aI434
aI586
aI27
atp5467
aa(lp5468
((lp5469
I235
aI200
aI259
a(lp5470
I465
aI612
aI363
aI147
atp5471
aa(lp5472
((lp5473
I465
a(lp5474
I594
aI77
aI574
atp5475
aa(lp5476
((lp5477
I374
aI173
aI259
a(lp5478
I465
aI594
aI2
aI46
atp5479
aa(lp5480
((lp5481
I374
aI173
aI355
a(lp5482
I465
aI293
aI340
aI211
atp5483
aa(lp5484
((lp5485
I326
aI449
aI173
a(lp5486
I465
aI274
aI398
aI509
atp5487
aa(lp5488
((lp5489
I326
aI599
aI173
a(lp5490
I465
aI574
aI594
aI150
atp5491
aa(lp5492
((lp5493
I477
aI173
aI578
a(lp5494
I465
aI594
aI333
aI210
atp5495
aa(lp5496
((lp5497
I477
aI355
aI578
a(lp5498
I465
aI286
aI168
aI21
atp5499
aa(lp5500
a(lp5501
((lp5502
I477
aI173
aI578
a(lp5503
I465
aI587
aI434
aI594
atp5504
aa(lp5505
((lp5506
I477
aI259
aI578
a(lp5507
I465
aI231
aI116
aI212
atp5508
aa(lp5509
((lp5510
I53
aI173
a(lp5511
I465
aI594
aI432
atp5512
aa(lp5513
((lp5514
I477
aI355
aI291
a(lp5515
I465
aI8
aI460
aI332
atp5516
aa(lp5517
((lp5518
I326
aI110
aI173
a(lp5519
I465
aI16
aI526
aI343
atp5520
aa(lp5521
((lp5522
I235
aI375
aI173
a(lp5523
I465
aI594
aI202
aI143
atp5524
aa(lp5525
((lp5526
I374
aI259
aI355
a(lp5527
I465
aI383
aI424
aI147
atp5528
aa(lp5529
((lp5530
I477
aI173
aI578
a(lp5531
I465
aI594
aI587
aI312
atp5532
aa(lp5533
((lp5534
I465
a(lp5535
I487
aI363
aI531
atp5536
aa(lp5537
((lp5538
I235
aI15
aI355
a(lp5539
I465
aI147
aI202
aI531
atp5540
aa(lp5541
((lp5542
I465
a(lp5543
I277
aI147
aI369
atp5544
aa(lp5545
((lp5546
I53
aI173
a(lp5547
I465
aI594
aI540
aI222
atp5548
aa(lp5549
((lp5550
I53
aI259
a(lp5551
I465
aI594
aI362
aI99
atp5552
aa(lp5553
((lp5554
I235
aI375
aI173
a(lp5555
I465
aI594
aI202
aI143
atp5556
aa(lp5557
((lp5558
I326
aI575
aI355
a(lp5559
I465
aI612
aI368
aI401
atp5560
aa(lp5561
((lp5562
I235
aI46
aI355
a(lp5563
I465
aI594
aI574
aI46
atp5564
aa(lp5565
((lp5566
I374
aI173
aI259
a(lp5567
I465
aI594
aI143
aI178
atp5568
aa(lp5569
((lp5570
I465
a(lp5571
I594
aI194
aI462
atp5572
aa(lp5573
((lp5574
I235
aI104
aI355
a(lp5575
I465
aI310
aI116
aI150
atp5576
aa(lp5577
a(lp5578
((lp5579
I235
aI317
aI355
a(lp5580
I465
aI231
aI594
aI77
atp5581
aa(lp5582
((lp5583
I465
a(lp5584
I594
aI143
aI178
atp5585
aa(lp5586
((lp5587
I465
a(lp5588
I594
aI310
aI247
atp5589
aa(lp5590
((lp5591
I235
aI356
aI355
a(lp5592
I465
aI594
aI249
aI356
atp5593
aa(lp5594
a(lp5595
((lp5596
I374
aI173
aI259
a(lp5597
I465
aI594
aI143
aI150
atp5598
aa(lp5599
((lp5600
I235
aI3
aI259
a(lp5601
I465
aI594
aI178
aI612
atp5602
aa(lp5603
((lp5604
I53
aI355
a(lp5605
I465
aI594
aI333
aI434
atp5606
aa(lp5607
a(lp5608
((lp5609
I53
aI173
a(lp5610
I465
aI594
aI247
aI310
atp5611
aa(lp5612
((lp5613
I235
aI251
aI259
a(lp5614
I465
aI116
aI69
aI130
atp5615
aa(lp5616
a(lp5617
((lp5618
I53
aI355
a(lp5619
I465
aI594
aI249
aI356
atp5620
aa(lp5621
((lp5622
I53
aI355
a(lp5623
I465
aI147
aI99
aI434
atp5624
aa(lp5625
a(lp5626
((lp5627
I465
a(lp5628
I594
aI491
aI363
atp5629
aa(lp5630
((lp5631
I235
aI359
aI355
a(lp5632
I465
aI331
aI594
aI580
atp5633
aa(lp5634
((lp5635
I374
aI173
aI259
a(lp5636
I465
aI587
aI280
aI375
atp5637
aa(lp5638
((lp5639
I374
aI173
aI259
a(lp5640
I465
aI116
aI114
aI247
atp5641
aa(lp5642
((lp5643
I374
aI259
aI355
a(lp5644
I465
aI255
aI150
aI293
atp5645
aa(lp5646
((lp5647
I235
aI545
aI259
a(lp5648
I465
aI594
aI202
aI339
atp5649
aa(lp5650
((lp5651
I53
aI259
a(lp5652
I465
aI594
aI383
aI21
atp5653
aa(lp5654
((lp5655
I465
a(lp5656
I116
aI240
aI130
atp5657
aa(lp5658
((lp5659
I53
aI259
a(lp5660
I465
aI109
aI614
aI494
atp5661
aa(lp5662
((lp5663
I235
aI125
aI259
a(lp5664
I465
aI594
aI622
aI2
atp5665
aa(lp5666
((lp5667
I326
aI103
aI173
a(lp5668
I465
aI116
aI312
aI362
atp5669
aa(lp5670
((lp5671
I465
a(lp5672
I116
aI21
aI247
atp5673
aa(lp5674
((lp5675
I326
aI334
aI259
a(lp5676
I465
aI86
aI64
aI312
atp5677
aa(lp5678
((lp5679
I483
aI173
a(lp5680
I465
aI420
aI149
aI364
atp5681
aa(lp5682
((lp5683
I235
aI116
aI173
a(lp5684
I465
aI116
aI112
aI333
atp5685
aa(lp5686
((lp5687
I235
aI143
aI259
a(lp5688
I465
aI286
aI143
aI202
atp5689
aa(lp5690
((lp5691
I374
aI259
aI355
a(lp5692
I465
aI116
aI189
aI8
atp5693
aa(lp5694
((lp5695
I483
aI355
a(lp5696
I465
aI244
aI586
aI27
atp5697
aa(lp5698
a(lp5699
((lp5700
I465
a(lp5701
I116
aI96
aI548
atp5702
aa(lp5703
((lp5704
I374
aI259
aI355
a(lp5705
I465
aI630
aI80
aI132
atp5706
aa(lp5707
((lp5708
I374
aI173
aI259
a(lp5709
I465
aI594
aI143
aI99
atp5710
aa(lp5711
((lp5712
I483
aI259
a(lp5713
I465
aI612
aI57
aI401
atp5714
aa(lp5715
((lp5716
I53
aI173
a(lp5717
I465
aI155
aI427
aI443
atp5718
aa(lp5719
((lp5720
I374
aI173
aI259
a(lp5721
I465
aI594
aI143
aI36
atp5722
aa(lp5723
((lp5724
I53
aI259
a(lp5725
I465
aI594
aI333
aI8
atp5726
aa(lp5727
((lp5728
I326
aI146
aI259
a(lp5729
I465
aI404
aI526
aI18
atp5730
aa(lp5731
((lp5732
I53
aI173
a(lp5733
I465
aI153
aI213
aI429
atp5734
aa(lp5735
((lp5736
I477
aI259
aI578
a(lp5737
I465
aI594
aI99
aI614
atp5738
aa(lp5739
((lp5740
I326
aI575
aI355
a(lp5741
I465
aI99
aI594
aI612
atp5742
aa(lp5743
((lp5744
I465
a(lp5745
I116
aI8
aI574
atp5746
aa(lp5747
((lp5748
I477
aI173
aI578
a(lp5749
I465
aI147
aI579
aI470
atp5750
aa(lp5751
((lp5752
I53
aI173
a(lp5753
I465
aI577
aI594
aI273
atp5754
aa(lp5755
((lp5756
I53
aI173
a(lp5757
I465
aI594
aI432
atp5758
aa(lp5759
((lp5760
I53
aI173
a(lp5761
I465
aI594
aI540
aI222
atp5762
aa(lp5763
((lp5764
I235
aI344
aI259
a(lp5765
I465
aI594
aI333
aI614
atp5766
aa(lp5767
((lp5768
I483
aI259
a(lp5769
I465
aI147
aI441
atp5770
aa(lp5771
((lp5772
I465
a(lp5773
I2
aI594
aI434
atp5774
aa(lp5775
((lp5776
I465
a(lp5777
I567
aI116
aI210
atp5778
aa(lp5779
a(lp5780
((lp5781
I326
aI445
aI355
a(lp5782
I465
aI283
aI366
aI585
atp5783
aa(lp5784
a(lp5785
((lp5786
I477
aI355
aI578
a(lp5787
I465
aI116
aI526
aI267
atp5788
aa(lp5789
((lp5790
I53
aI173
a(lp5791
I465
aI594
aI202
aI247
atp5792
aa(lp5793
((lp5794
I235
aI127
aI355
a(lp5795
I465
aI594
aI99
aI540
atp5796
aa(lp5797
((lp5798
I483
aI355
a(lp5799
I465
aI209
aI594
aI532
atp5800
aa(lp5801
a(lp5802
((lp5803
I53
aI355
a(lp5804
I465
aI594
aI198
aI531
atp5805
aa(lp5806
((lp5807
I235
aI60
aI259
a(lp5808
I465
aI147
aI60
aI297
atp5809
aa(lp5810
((lp5811
I326
aI340
aI173
a(lp5812
I465
aI594
aI333
aI612
atp5813
aa(lp5814
((lp5815
I477
aI259
aI578
a(lp5816
I465
aI594
aI574
aI411
atp5817
aa(lp5818
((lp5819
I374
aI173
aI355
a(lp5820
I465
aI594
aI463
aI534
atp5821
aa(lp5822
((lp5823
I465
a(lp5824
I574
aI499
aI594
atp5825
aa(lp5826
((lp5827
I477
aI173
aI578
a(lp5828
I465
aI594
aI383
aI21
atp5829
aa(lp5830
((lp5831
I326
aI232
aI355
a(lp5832
I465
aI339
aI213
aI429
atp5833
aa(lp5834
a(lp5835
((lp5836
I235
aI545
aI355
a(lp5837
I465
aI87
aI38
aI594
atp5838
aa(lp5839
a(lp5840
((lp5841
I465
a(lp5842
I143
aI99
aI594
atp5843
aa(lp5844
((lp5845
I374
aI173
aI355
a(lp5846
I465
aI594
aI508
aI443
atp5847
aa(lp5848
((lp5849
I374
aI173
aI355
a(lp5850
I465
aI312
aI64
aI86
atp5851
aa(lp5852
((lp5853
I374
aI173
aI355
a(lp5854
I465
aI156
aI28
aI36
atp5855
aa(lp5856
((lp5857
I53
aI355
a(lp5858
I465
aI594
aI383
aI202
atp5859
aa(lp5860
((lp5861
I326
aI272
aI259
a(lp5862
I465
aI574
aI310
aI594
atp5863
aa(lp5864
((lp5865
I477
aI173
aI578
a(lp5866
I465
aI594
aI130
atp5867
aa(lp5868
((lp5869
I326
aI215
aI355
a(lp5870
I465
aI594
aI407
aI549
atp5871
aa(lp5872
((lp5873
I477
aI173
aI291
a(lp5874
I465
aI220
aI366
aI585
atp5875
aa(lp5876
((lp5877
I235
aI333
aI173
a(lp5878
I465
aI116
aI2
aI70
atp5879
aa(lp5880
a(lp5881
((lp5882
I374
aI259
aI355
a(lp5883
I465
aI110
aI383
aI267
atp5884
aa(lp5885
((lp5886
I477
aI173
aI578
a(lp5887
I465
aI48
aI387
aI132
atp5888
aa(lp5889
((lp5890
I53
aI355
a(lp5891
I465
aI147
aI621
aI383
atp5892
aa(lp5893
a(lp5894
((lp5895
I477
aI173
aI578
a(lp5896
I465
aI594
aI441
atp5897
aa(lp5898
((lp5899
I477
aI173
aI578
a(lp5900
I465
aI594
aI333
aI150
atp5901
aa(lp5902
((lp5903
I374
aI173
aI259
a(lp5904
I465
aI612
aI624
aI147
atp5905
aa(lp5906
((lp5907
I235
aI250
aI173
a(lp5908
I465
aI594
aI526
aI343
atp5909
aa(lp5910
((lp5911
I374
aI173
aI259
a(lp5912
I465
aI2
aI594
atp5913
aa(lp5914
((lp5915
I326
aI107
aI355
a(lp5916
I465
aI28
aI586
aI410
atp5917
aa(lp5918
((lp5919
I326
aI480
aI355
a(lp5920
I465
aI147
aI499
aI395
atp5921
aa(lp5922
((lp5923
I465
a(lp5924
I150
aI2
aI594
atp5925
aa(lp5926
((lp5927
I374
aI173
aI259
a(lp5928
I465
aI594
aI312
aI614
atp5929
aa(lp5930
((lp5931
I374
aI173
aI355
a(lp5932
I465
aI526
aI116
aI584
atp5933
aa(lp5934
((lp5935
I235
aI317
aI355
a(lp5936
I465
aI624
aI612
aI147
atp5937
aa(lp5938
((lp5939
I465
a(lp5940
I594
aI529
aI301
atp5941
aa(lp5942
((lp5943
I465
a(lp5944
I594
aI526
aI46
atp5945
aa(lp5946
((lp5947
I477
aI259
aI578
a(lp5948
I465
aI147
aI333
aI395
atp5949
aa(lp5950
((lp5951
I235
aI623
aI259
a(lp5952
I465
aI594
aI491
aI363
atp5953
aa(lp5954
((lp5955
I465
a(lp5956
I383
aI147
aI462
atp5957
aa(lp5958
a(lp5959
((lp5960
I374
aI173
aI355
a(lp5961
I465
aI147
aI363
aI612
atp5962
aa(lp5963
((lp5964
I465
a(lp5965
I280
aI587
aI375
atp5966
aa(lp5967
((lp5968
I53
aI259
a(lp5969
I465
aI143
aI594
aI36
atp5970
aa(lp5971
((lp5972
I374
aI259
aI355
a(lp5973
I465
aI540
aI312
aI284
atp5974
aa(lp5975
((lp5976
I326
aI594
aI355
a(lp5977
I465
aI192
aI102
aI594
atp5978
aa(lp5979
((lp5980
I235
aI303
aI259
a(lp5981
I465
aI594
aI190
aI34
atp5982
aa(lp5983
((lp5984
I374
aI173
aI355
a(lp5985
I465
aI390
aI517
aI418
atp5986
aa(lp5987
a(lp5988
((lp5989
I477
aI355
aI578
a(lp5990
I465
aI594
aI2
aI612
atp5991
aa(lp5992
((lp5993
I477
aI355
aI578
a(lp5994
I465
aI594
aI2
aI362
atp5995
aa(lp5996
((lp5997
I235
aI234
aI259
a(lp5998
I465
aI266
aI234
aI202
atp5999
aa(lp6000
((lp6001
I477
aI259
aI578
a(lp6002
I465
aI147
aI333
aI395
atp6003
aa(lp6004
((lp6005
I374
aI173
aI259
a(lp6006
I465
aI116
aI8
aI189
atp6007
aa(lp6008
((lp6009
I477
aI355
aI578
a(lp6010
I465
aI600
aI587
aI375
atp6011
aa(lp6012
((lp6013
I326
aI356
aI259
a(lp6014
I465
aI594
aI178
aI540
atp6015
aa(lp6016
((lp6017
I477
aI355
aI578
a(lp6018
I465
aI456
aI561
aI103
atp6019
aa(lp6020
((lp6021
I465
a(lp6022
I594
aI574
aI540
atp6023
aa(lp6024
a(lp6025
((lp6026
I53
aI173
a(lp6027
I465
aI594
aI499
aI178
atp6028
aa(lp6029
((lp6030
I235
aI239
aI355
a(lp6031
I465
aI499
aI232
aI116
atp6032
aa(lp6033
((lp6034
I477
aI355
aI578
a(lp6035
I465
aI117
aI363
aI531
atp6036
aa(lp6037
((lp6038
I465
a(lp6039
I147
aI383
aI2
atp6040
aa(lp6041
((lp6042
I477
aI259
aI578
a(lp6043
I465
aI584
aI574
aI147
atp6044
aa(lp6045
((lp6046
I235
aI263
aI259
a(lp6047
I465
aI8
aI116
aI189
atp6048
aa(lp6049
((lp6050
I465
a(lp6051
I2
aI466
atp6052
aa(lp6053
((lp6054
I53
aI259
a(lp6055
I465
aI197
aI116
aI36
atp6056
aa(lp6057
((lp6058
I326
aI49
aI259
a(lp6059
I465
aI594
aI2
atp6060
aa(lp6061
((lp6062
I235
aI463
aI355
a(lp6063
I465
aI274
aI486
aI540
atp6064
aa(lp6065
((lp6066
I374
aI173
aI259
a(lp6067
I465
aI594
aI141
aI210
atp6068
aa(lp6069
((lp6070
I374
aI173
aI259
a(lp6071
I465
aI486
aI274
aI540
atp6072
aa(lp6073
a(lp6074
((lp6075
I477
aI259
aI578
a(lp6076
I465
aI147
aI178
aI531
atp6077
aa(lp6078
a(lp6079
((lp6080
I374
aI355
aI259
a(lp6081
I465
aI594
aI363
aI42
atp6082
aa(lp6083
((lp6084
I53
aI173
a(lp6085
I465
aI147
aI198
aI531
atp6086
aa.