(lp0
(lp1
(lp2
I594
aI526
aI383
aa(lp3
I278
aI467
aI173
aI175
aaa(lp4
(lp5
I116
aI526
aI383
aa(lp6
I278
aI467
aI355
aI175
aaa(lp7
(lp8
I116
aI526
aI310
aa(lp9
I484
aI49
aI11
aI467
aI565
aI543
aI467
aI355
aI175
aaa(lp10
(lp11
I116
aI526
aI32
aa(lp12
I484
aI146
aI11
aI467
aI565
aI543
aI467
aI259
aI175
aaa(lp13
(lp14
I116
aI261
aI32
aa(lp15
I13
aI467
aI173
aI289
aI355
aI62
aaa(lp16
(lp17
I32
aI261
aI116
aa(lp18
I514
aI467
aI0
aI67
aaa(lp19
(lp20
I116
aI261
aI32
aa(lp21
I514
aI467
aI0
aI67
aaa(lp22
(lp23
I32
aI261
aI116
aa(lp24
I593
aI467
aI264
aI305
aI543
aI467
aI355
aI175
aaa(lp25
(lp26
I32
aI261
aI274
aa(lp27
I484
aI146
aI606
aI467
aI565
aI543
aI467
aI355
aI175
aaa(lp28
(lp29
I594
aI143
aI8
aa(lp30
I484
aI252
aI11
aI467
aI126
aI543
aI175
aI173
aaa(lp31
(lp32
I426
aI143
aI8
aa(lp33
I298
aI62
aI173
aI289
aI259
aaa(lp34
(lp35
I143
aI426
aI8
aa(lp36
I514
aaa(lp37
(lp38
I426
aI143
aI8
aa(lp39
I298
aI173
aI289
aI355
aaa(lp40
(lp41
I8
aI143
aI426
aa(lp42
I278
aI175
aI259
aaa(lp43
(lp44
I8
aI52
aI426
aa(lp45
I341
aI239
aaa(lp46
(lp47
I8
aI52
aI288
aa(lp48
I484
aI148
aI11
aI467
aI126
aI543
aI355
aaa(lp49
(lp50
I8
aI52
aI74
aa(lp51
I341
aI505
aaa(lp52
(lp53
I505
aI52
aI74
aa(lp54
I484
aI239
aI11
aI467
aI126
aI543
aI259
aaa(lp55
(lp56
I594
aI99
aI104
aa(lp57
I298
aI467
aI173
aI289
aI355
aI62
aaa(lp58
(lp59
I104
aI99
aI594
aa(lp60
I298
aI467
aI173
aI289
aI355
aI62
aaa(lp61
(lp62
I594
aI99
aI104
aa(lp63
I341
aI463
aI83
aI467
aI126
aI543
aI467
aI259
aI175
aaa(lp64
(lp65
I594
aI463
aI104
aa(lp66
I0
aI0
aI11
aI0
aI67
aaa(lp67
(lp68
I594
aI463
aI104
aa(lp69
I298
aI467
aI173
aI289
aI259
aI62
aaa(lp70
(lp71
I463
aI594
aI104
aa(lp72
I341
aI597
aI83
aI467
aI126
aI543
aI467
aI355
aI175
aaa(lp73
(lp74
I463
aI594
aI597
aa(lp75
I0
aI0
aI11
aI0
aI67
aaa(lp76
(lp77
I463
aI594
aI597
aa(lp78
I0
aI0
aI11
aI0
aI67
aaa(lp79
(lp80
I463
aI594
aI597
aa(lp81
I484
aI607
aI11
aI467
aI196
aI543
aI467
aI259
aI175
aaa(lp82
(lp83
I594
aI99
aI612
aa(lp84
I13
aI175
aI173
aI289
aI259
aaa(lp85
(lp86
I99
aI594
aI612
aa(lp87
I484
aI575
aI11
aI467
aI196
aI543
aI175
aI355
aaa(lp88
(lp89
I99
aI594
aI26
aa(lp90
I413
aI175
aI355
aaa(lp91
(lp92
I99
aI594
aI544
aa(lp93
I113
aI0
aaa(lp94
(lp95
I99
aI594
aI544
aa(lp96
I13
aI175
aI259
aI289
aI355
aaa(lp97
(lp98
I99
aI544
aI594
aa(lp99
I13
aI175
aI259
aI289
aI355
aaa(lp100
(lp101
I99
aI594
aI544
aa(lp102
I113
aI0
aaa(lp103
(lp104
I99
aI594
aI544
aa(lp105
I341
aI600
aI147
aI83
aI175
aI259
aaa(lp106
(lp107
I99
aI147
aI544
aa(lp108
I484
aI327
aI11
aI175
aI259
aaa(lp109
(lp110
I594
aI99
aI540
aa(lp111
I484
aI127
aI11
aI467
aI126
aI543
aI467
aI355
aI175
aaa(lp112
(lp113
I594
aI99
aI430
aa(lp114
I113
aI0
aaa(lp115
(lp116
I594
aI99
aI430
aa(lp117
I298
aI0
aI543
aI467
aI259
aI289
aI355
aI62
aaa(lp118
(lp119
I594
aI430
aI99
aa(lp120
I113
aI0
aaa(lp121
(lp122
I594
aI430
aI99
aa(lp123
I484
aI430
aI11
aI467
aI126
aI543
aI467
aI259
aI175
aaa(lp124
(lp125
I594
aI241
aI99
aa(lp126
I484
aI505
aI11
aI467
aI126
aI543
aI467
aI173
aI175
aaa(lp127
(lp128
I283
aI241
aI99
aa(lp129
I298
aI467
aI259
aI289
aI355
aI62
aaa(lp130
(lp131
I283
aI99
aI241
aa(lp132
I484
aI110
aI11
aI467
aI565
aI543
aI467
aI259
aI175
aaa(lp133
(lp134
I283
aI72
aI241
aa(lp135
I484
aI604
aI11
aI467
aI565
aI543
aI467
aI355
aI175
aaa(lp136
(lp137
I594
aI99
aI540
aa(lp138
I484
aI127
aI11
aI467
aI126
aI543
aI175
aI355
aaa(lp139
(lp140
I594
aI99
aI430
aa(lp141
I0
aI0
aI467
aI442
aaa(lp142
(lp143
I594
aI99
aI430
aa(lp144
I13
aI62
aI259
aI289
aI355
aaa(lp145
(lp146
I594
aI430
aI99
aa(lp147
I0
aI0
aI467
aI442
aaa(lp148
(lp149
I594
aI430
aI99
aa(lp150
I278
aI175
aI259
aaa(lp151
(lp152
I594
aI241
aI99
aa(lp153
I484
aI505
aI11
aI467
aI126
aI543
aI175
aI173
aaa(lp154
(lp155
I283
aI241
aI99
aa(lp156
I13
aI62
aI259
aI289
aI355
aaa(lp157
(lp158
I283
aI99
aI241
aa(lp159
I484
aI147
aI110
aI11
aI467
aI230
aI543
aI175
aI259
aaa(lp160
(lp161
I283
aI72
aI241
aa(lp162
I484
aI604
aI11
aI467
aI230
aI543
aI175
aI355
aaa(lp163
(lp164
I594
aI99
aI531
aa(lp165
I13
aI62
aI259
aI289
aI355
aaa(lp166
(lp167
I594
aI531
aI99
aa(lp168
I538
aI147
aI37
aI83
aI175
aI259
aaa(lp169
(lp170
I594
aI37
aI99
aa(lp171
I484
aI0
aI11
aI467
aI126
aI543
aI175
aI355
aaa(lp172
(lp173
I594
aI37
aI276
aa(lp174
I593
aI175
aI259
aaa(lp175
(lp176
I594
aI276
aa(lp177
I593
aI147
aI463
aI83
aI175
aI259
aaa(lp178
(lp179
I594
aI510
aa(lp180
I484
aI616
aI11
aI467
aI126
aI543
aI175
aI173
aaa(lp181
(lp182
I0
aI510
aa(lp183
I538
aI600
aI147
aI83
aI467
aI230
aI543
aI175
aI173
aaa(lp184
(lp185
I248
aI510
aa(lp186
I0
aI0
aI467
aI442
aaa(lp187
(lp188
I248
aI510
aa(lp189
I13
aI62
aI173
aI289
aI259
aaa(lp190
(lp191
I594
aI99
aI210
aa(lp192
I484
aI95
aI11
aI467
aI126
aI543
aI467
aI355
aI175
aaa(lp193
(lp194
I594
aI99
aI358
aa(lp195
I341
aI147
aI83
aI467
aI196
aI543
aI467
aI173
aI175
aaa(lp196
(lp197
I147
aI99
aI358
aa(lp198
I298
aI467
aI259
aI289
aI355
aI62
aaa(lp199
(lp200
I147
aI358
aI99
aa(lp201
I484
aI527
aI11
aI467
aI126
aI543
aI467
aI173
aI175
aaa(lp202
(lp203
I48
aI358
aI99
aa(lp204
I484
aI533
aI11
aI467
aI196
aI543
aI467
aI259
aI175
aaa(lp205
(lp206
I48
aI387
aI99
aa(lp207
I484
aI99
aI11
aI467
aI126
aI543
aI467
aI355
aI175
aaa(lp208
(lp209
I48
aI387
aI132
aa(lp210
I341
aI147
aI83
aI467
aI196
aI543
aI467
aI173
aI175
aaa(lp211
(lp212
I527
aI387
aI132
aa(lp213
I484
aI198
aI467
aI467
aI196
aI543
aI467
aI259
aI175
aaa(lp214
(lp215
I527
aI367
aI132
aa(lp216
I341
aI239
aI83
aI467
aI126
aI543
aI467
aI259
aI175
aaa(lp217
(lp218
I594
aI99
aI210
aa(lp219
I484
aI95
aI11
aI467
aI126
aI543
aI467
aI355
aI175
aaa(lp220
(lp221
I594
aI99
aI358
aa(lp222
I341
aI147
aI83
aI467
aI173
aI175
aaa(lp223
(lp224
I147
aI99
aI358
aa(lp225
I298
aI467
aI259
aI289
aI355
aI62
aaa(lp226
(lp227
I147
aI358
aI99
aa(lp228
I484
aI527
aI11
aI467
aI126
aI543
aI467
aI173
aI175
aaa(lp229
(lp230
I48
aI358
aI99
aa(lp231
I484
aI533
aI11
aI467
aI196
aI543
aI467
aI259
aI175
aaa(lp232
(lp233
I48
aI387
aI99
aa(lp234
I484
aI99
aI11
aI467
aI126
aI543
aI467
aI355
aI175
aaa(lp235
(lp236
I48
aI387
aI132
aa(lp237
I341
aI147
aI83
aI467
aI230
aI543
aI467
aI173
aI175
aaa(lp238
(lp239
I527
aI387
aI132
aa(lp240
I484
aI198
aI11
aI467
aI230
aI543
aI467
aI259
aI175
aaa(lp241
(lp242
I527
aI367
aI132
aa(lp243
I341
aI239
aI83
aI467
aI126
aI543
aI467
aI259
aI175
aaa(lp244
(lp245
I594
aI99
aI150
aa(lp246
I0
aI0
aaa(lp247
(lp248
I594
aI99
aI150
aa(lp249
I484
aI375
aI11
aI467
aI126
aI543
aI467
aI264
aI175
aaa(lp250
(lp251
I594
aI99
aI182
aa(lp252
I484
aI110
aI11
aI467
aI230
aI543
aI467
aI173
aI175
aaa(lp253
(lp254
I563
aI99
aI182
aa(lp255
I341
aI600
aI375
aI83
aI467
aI126
aI543
aI467
aI264
aI175
aaa(lp256
(lp257
I563
aI99
aI10
aa(lp258
I162
aI110
aI11
aI126
aI543
aI467
aI173
aI175
aaa(lp259
(lp260
I285
aI99
aI10
aa(lp261
I341
aI195
aI543
aI259
aI175
aaa(lp262
(lp263
I285
aI463
aI10
aa(lp264
I484
aI445
aI11
aI230
aI543
aI259
aI175
aaa(lp265
(lp266
I285
aI568
aI10
aa(lp267
I484
aI568
aI11
aI467
aI126
aI543
aI467
aI259
aI175
aaa(lp268
(lp269
I285
aI528
aI10
aa(lp270
I13
aI467
aI173
aI289
aI355
aI62
aaa(lp271
(lp272
I594
aI143
aI584
aa(lp273
I0
aI0
aaa(lp274
(lp275
I594
aI143
aI584
aa(lp276
I13
aI62
aI259
aI289
aI355
aaa(lp277
(lp278
I594
aI584
aI143
aa(lp279
I13
aI62
aI259
aI289
aI355
aaa(lp280
(lp281
I594
aI143
aI584
aa(lp282
I341
aI173
aI103
aI83
aI175
aI259
aaa(lp283
(lp284
I594
aI103
aI584
aa(lp285
I13
aI62
aI173
aI289
aI259
aaa(lp286
(lp287
I103
aI594
aI584
aa(lp288
I484
aI259
aI603
aI11
aI175
aI259
aaa(lp289
(lp290
I103
aI116
aI584
aa(lp291
I484
aI600
aI356
aI11
aI467
aI230
aI543
aI175
aI259
aaa(lp292
(lp293
I103
aI100
aI584
aa(lp294
I13
aI62
aI259
aI289
aI355
aaa(lp295
(lp296
I103
aI584
aI100
aa(lp297
I113
aI0
aaa(lp298
(lp299
I594
aI99
aI150
aa(lp300
I113
aI0
aaa(lp301
(lp302
I594
aI99
aI150
aa(lp303
I484
aI505
aI11
aI467
aI196
aI543
aI175
aI355
aaa(lp304
(lp305
I594
aI99
aI182
aa(lp306
I484
aI110
aI11
aI467
aI196
aI543
aI175
aI173
aaa(lp307
(lp308
I563
aI99
aI182
aa(lp309
I341
aI375
aaa(lp310
(lp311
I563
aI99
aI10
aa(lp312
I413
aI175
aI173
aaa(lp313
(lp314
I285
aI99
aI10
aa(lp315
I341
aI463
aaa(lp316
(lp317
I285
aI463
aI10
aa(lp318
I484
aI445
aI11
aI467
aI565
aI543
aI175
aI259
aaa(lp319
(lp320
I285
aI568
aI10
aa(lp321
I514
aI175
aI259
aaa(lp322
(lp323
I285
aI528
aI10
aa(lp324
I298
aI173
aI289
aI355
aaa(lp325
(lp326
I594
aI99
aI150
aa(lp327
I0
aI0
aaa(lp328
(lp329
I594
aI99
aI150
aa(lp330
I484
aI505
aI11
aI467
aI230
aI543
aI467
aI355
aI175
aaa(lp331
(lp332
I594
aI99
aI182
aa(lp333
I298
aI467
aI173
aI289
aI355
aI62
aaa(lp334
(lp335
I563
aI99
aI182
aa(lp336
I341
aI375
aI83
aI467
aI126
aI543
aI467
aI355
aI175
aaa(lp337
(lp338
I563
aI99
aI10
aa(lp339
I413
aI467
aI173
aI175
aaa(lp340
(lp341
I285
aI99
aI10
aa(lp342
I341
aI463
aI83
aI467
aI126
aI543
aI467
aI259
aI175
aaa(lp343
(lp344
I285
aI463
aI10
aa(lp345
I484
aI445
aI11
aI467
aI230
aI543
aI467
aI259
aI175
aaa(lp346
(lp347
I285
aI568
aI10
aa(lp348
I484
aI568
aI11
aI467
aI126
aI543
aI467
aI259
aI175
aaa(lp349
(lp350
I285
aI528
aI10
aa(lp351
I298
aI467
aI173
aI289
aI355
aI62
aaa(lp352
(lp353
I594
aI99
aI584
aa(lp354
I113
aI0
aaa(lp355
(lp356
I594
aI99
aI584
aa(lp357
I113
aI0
aaa(lp358
(lp359
I594
aI99
aI584
aa(lp360
I113
aI0
aaa(lp361
(lp362
I594
aI96
aI584
aa(lp363
I484
aI545
aI11
aI467
aI126
aI543
aI175
aI259
aaa(lp364
(lp365
I594
aI96
aI584
aa(lp366
I113
aI0
aaa(lp367
(lp368
I594
aI96
aI539
aa(lp369
I484
aI600
aI356
aI11
aI467
aI196
aI543
aI175
aI355
aaa(lp370
(lp371
I116
aI96
aI539
aa(lp372
I88
aI175
aI173
aaa(lp373
(lp374
I116
aI96
aI548
aa(lp375
I341
aI627
aI83
aI467
aI126
aI543
aI175
aI355
aaa(lp376
(lp377
I116
aI96
aI548
aa(lp378
I484
aI524
aI11
aI467
aI126
aI543
aI175
aI173
aaa(lp379
(lp380
I594
aI99
aI434
aa(lp381
I341
aI600
aI147
aI83
aI467
aI173
aI175
aaa(lp382
(lp383
I147
aI99
aI434
aa(lp384
I484
aI434
aI11
aI467
aI355
aI175
aaa(lp385
(lp386
I147
aI99
aI614
aa(lp387
I484
aI147
aI11
aI467
aI173
aI175
aaa(lp388
(lp389
I594
aI99
aI614
aa(lp390
I341
aI600
aI463
aI83
aI467
aI259
aI175
aaa(lp391
(lp392
I594
aI463
aI614
aa(lp393
I484
aI614
aI11
aI467
aI355
aI175
aaa(lp394
(lp395
I594
aI463
aI534
aa(lp396
I13
aI467
aI173
aI289
aI355
aI62
aaa(lp397
(lp398
I534
aI463
aI594
aa(lp399
I484
aI594
aI11
aI467
aI355
aI175
aaa(lp400
(lp401
I534
aI463
aI116
aa(lp402
I341
aI600
aI147
aI83
aI467
aI173
aI175
aaa(lp403
(lp404
I275
aI463
aI116
aa(lp405
I113
aI0
aI515
aI147
aI67
aaa(lp406
(lp407
I594
aI99
aI434
aa(lp408
I341
aI147
aaa(lp409
(lp410
I147
aI99
aI434
aa(lp411
I278
aI175
aI355
aaa(lp412
(lp413
I147
aI99
aI614
aa(lp414
I278
aI175
aI173
aaa(lp415
(lp416
I594
aI99
aI614
aa(lp417
I341
aI463
aaa(lp418
(lp419
I594
aI463
aI614
aa(lp420
I278
aI175
aI355
aaa(lp421
(lp422
I594
aI463
aI534
aa(lp423
I298
aI62
aI173
aI289
aI355
aaa(lp424
(lp425
I534
aI463
aI594
aa(lp426
I278
aI355
aaa(lp427
(lp428
I534
aI463
aI116
aa(lp429
I341
aI110
aaa(lp430
(lp431
I275
aI463
aI116
aa(lp432
I113
aI0
aaa(lp433
(lp434
I594
aI99
aI362
aa(lp435
I298
aI62
aI259
aI289
aI355
aaa(lp436
(lp437
I594
aI362
aI99
aa(lp438
I278
aI175
aI259
aaa(lp439
(lp440
I594
aI443
aI99
aa(lp441
I278
aI175
aI355
aaa(lp442
(lp443
I594
aI443
aI132
aa(lp444
I341
aI463
aaa(lp445
(lp446
I594
aI443
aI98
aa(lp447
I278
aI175
aI173
aaa(lp448
(lp449
I116
aI443
aI98
aa(lp450
I113
aI0
aaa(lp451
(lp452
I116
aI443
aI98
aa(lp453
I298
aI173
aI289
aI355
aaa(lp454
(lp455
I98
aI443
aI116
aa(lp456
I298
aI259
aI289
aI355
aaa(lp457
(lp458
I98
aI116
aI443
aa(lp459
I298
aI173
aI289
aI259
aaa(lp460
(lp461
I594
aI99
aI362
aa(lp462
I13
aI62
aI259
aI289
aI355
aaa(lp463
(lp464
I594
aI362
aI99
aa(lp465
I278
aI175
aI259
aaa(lp466
(lp467
I594
aI443
aI99
aa(lp468
I278
aI175
aI355
aaa(lp469
(lp470
I594
aI443
aI132
aa(lp471
I538
aI173
aI463
aI83
aI175
aI355
aaa(lp472
(lp473
I594
aI443
aI98
aa(lp474
I278
aI175
aI173
aaa(lp475
(lp476
I116
aI443
aI98
aa(lp477
I0
aI0
aI467
aI442
aaa(lp478
(lp479
I116
aI443
aI98
aa(lp480
I13
aI62
aI173
aI289
aI355
aaa(lp481
(lp482
I98
aI443
aI116
aa(lp483
I13
aI62
aI259
aI289
aI355
aaa(lp484
(lp485
I98
aI116
aI443
aa(lp486
I13
aI62
aI173
aI289
aI259
aaa(lp487
(lp488
I594
aI99
aI462
aa(lp489
I341
aI147
aaa(lp490
(lp491
I147
aI99
aI462
aa(lp492
I484
aI586
aI11
aI467
aI196
aI543
aI175
aI173
aaa(lp493
(lp494
I365
aI99
aI462
aa(lp495
I484
aI0
aI11
aI467
aI196
aI543
aI175
aI355
aaa(lp496
(lp497
I365
aI99
aI400
aa(lp498
I298
aI173
aI289
aI355
aaa(lp499
(lp500
I400
aI99
aI365
aa(lp501
I298
aI173
aI289
aI259
aaa(lp502
(lp503
I99
aI400
aI365
aa(lp504
I484
aI252
aI11
aI467
aI126
aI543
aI259
aaa(lp505
(lp506
I99
aI454
aI365
aa(lp507
I484
aI273
aI11
aI467
aI126
aI543
aI259
aaa(lp508
(lp509
I99
aI265
aI365
aa(lp510
I341
aI463
aaa(lp511
(lp512
I463
aI265
aI365
aa(lp513
I298
aI259
aI289
aI355
aaa(lp514
(lp515
I594
aI99
aI46
aa(lp516
I13
aI62
aI259
aI289
aI355
aaa(lp517
(lp518
I594
aI46
aI99
aa(lp519
I538
aI600
aI147
aI83
aI175
aI173
aaa(lp520
(lp521
I147
aI46
aI99
aa(lp522
I0
aI0
aI467
aI442
aaa(lp523
(lp524
I147
aI46
aI99
aa(lp525
I538
aI600
aI463
aI83
aI175
aI355
aaa(lp526
(lp527
I147
aI46
aI463
aa(lp528
I593
aI175
aI173
aaa(lp529
(lp530
I46
aI463
aa(lp531
I278
aI175
aI355
aaa(lp532
(lp533
I46
aI99
aa(lp534
I0
aI0
aI467
aI442
aaa(lp535
(lp536
I46
aI99
aa(lp537
I538
aI600
aI463
aI83
aI175
aI355
aaa(lp538
(lp539
I46
aI463
aa(lp540
I593
aI175
aI355
aaa(lp541
(lp542
I594
aI143
aI434
aa(lp543
I341
aI103
aI83
aI467
aI126
aI543
aI467
aI259
aI175
aaa(lp544
(lp545
I594
aI103
aI434
aa(lp546
I341
aI147
aI83
aI467
aI126
aI543
aI467
aI259
aI175
aaa(lp547
(lp548
I147
aI103
aI434
aa(lp549
I298
aI467
aI173
aI289
aI355
aI62
aaa(lp550
(lp551
I434
aI103
aI147
aa(lp552
I341
aI110
aI83
aI467
aI126
aI543
aI467
aI173
aI175
aaa(lp553
(lp554
I110
aI103
aI147
aa(lp555
I341
aI103
aI83
aI467
aI259
aI175
aaa(lp556
(lp557
I110
aI147
aa(lp558
I0
aI0
aI11
aI0
aI67
aaa(lp559
(lp560
I110
aI147
aa(lp561
I298
aI467
aI158
aI543
aI467
aI259
aI488
aI62
aaa(lp562
(lp563
I147
aI110
aa(lp564
I298
aI467
aI158
aI543
aI467
aI259
aI488
aI62
aaa(lp565
(lp566
I110
aI147
aa(lp567
I0
aI0
aI11
aI0
aI67
aaa(lp568
(lp569
I594
aI363
aI312
aa(lp570
I484
aI239
aI606
aI467
aI230
aaa(lp571
(lp572
I564
aI363
aI312
aa(lp573
I593
aI600
aI147
aI83
aI467
aI173
aI175
aaa(lp574
(lp575
I360
aI363
aI312
aa(lp576
I13
aI467
aI355
aI259
aI62
aaa(lp577
(lp578
I360
aI312
aI363
aa(lp579
I278
aI467
aI259
aI175
aaa(lp580
(lp581
I360
aI495
aI363
aa(lp582
I593
aI467
aI355
aI305
aI543
aI467
aI259
aI175
aaa(lp583
(lp584
I360
aI194
aI363
aa(lp585
I13
aI467
aI173
aI259
aI62
aaa(lp586
(lp587
I194
aI360
aI363
aa(lp588
I484
aI428
aI11
aI467
aI126
aaa(lp589
(lp590
I194
aI360
aI628
aa(lp591
I13
aI467
aI173
aI289
aI355
aI62
aaa(lp592
(lp593
I628
aI360
aI194
aa(lp594
I484
aI375
aI11
aI467
aI126
aI543
aI467
aI259
aI175
aaa(lp595
(lp596
I594
aI363
aI312
aa(lp597
I484
aI239
aI11
aI467
aI196
aI543
aI467
aI173
aI175
aaa(lp598
(lp599
I564
aI363
aI312
aa(lp600
I341
aI147
aI83
aI467
aI126
aI543
aI467
aI173
aI175
aaa(lp601
(lp602
I360
aI363
aI312
aa(lp603
I298
aI467
aI259
aI289
aI355
aI62
aaa(lp604
(lp605
I360
aI312
aI363
aa(lp606
I484
aI312
aI11
aI467
aI126
aI543
aI467
aI259
aI175
aaa(lp607
(lp608
I360
aI495
aI363
aa(lp609
I341
aI65
aI83
aI467
aI126
aI543
aI467
aI259
aI175
aaa(lp610
(lp611
I360
aI194
aI363
aa(lp612
I298
aI467
aI173
aI289
aI259
aI62
aaa(lp613
(lp614
I194
aI360
aI363
aa(lp615
I484
aI428
aI11
aI467
aI126
aI543
aI467
aI355
aI175
aaa(lp616
(lp617
I194
aI360
aI628
aa(lp618
I298
aI467
aI173
aI289
aI355
aI62
aaa(lp619
(lp620
I628
aI360
aI194
aa(lp621
I484
aI375
aI11
aI467
aI126
aI543
aI467
aI259
aI175
aaa(lp622
(lp623
I594
aI363
aI312
aa(lp624
I484
aI239
aI11
aI467
aI196
aI543
aI175
aI173
aaa(lp625
(lp626
I564
aI363
aI312
aa(lp627
I341
aI147
aaa(lp628
(lp629
I360
aI363
aI312
aa(lp630
I298
aI62
aI259
aI289
aI355
aaa(lp631
(lp632
I360
aI312
aI363
aa(lp633
I278
aI175
aI259
aaa(lp634
(lp635
I360
aI495
aI363
aa(lp636
I341
aI65
aaa(lp637
(lp638
I360
aI194
aI363
aa(lp639
I298
aI173
aI289
aI259
aaa(lp640
(lp641
I194
aI360
aI363
aa(lp642
I484
aI428
aI11
aI467
aI126
aI543
aI355
aaa(lp643
(lp644
I194
aI360
aI628
aa(lp645
I298
aI173
aI289
aI355
aaa(lp646
(lp647
I628
aI360
aI194
aa(lp648
I484
aI375
aI11
aI467
aI126
aI543
aI259
aaa(lp649
(lp650
I594
aI363
aI178
aa(lp651
I278
aI175
aI259
aaa(lp652
(lp653
I594
aI213
aI178
aa(lp654
I113
aI0
aaa(lp655
(lp656
I594
aI213
aI178
aa(lp657
I278
aI175
aI173
aaa(lp658
(lp659
I116
aI213
aI178
aa(lp660
I514
aaa(lp661
(lp662
I28
aI213
aI178
aa(lp663
I278
aI175
aI259
aaa(lp664
(lp665
I28
aI439
aI178
aa(lp666
I341
aI586
aaa(lp667
(lp668
I28
aI589
aI178
aa(lp669
I341
aI198
aaa(lp670
(lp671
I28
aI589
aI198
aa(lp672
I484
aI187
aI11
aI467
aI196
aI543
aI173
aaa(lp673
(lp674
I583
aI589
aI198
aa(lp675
I341
aI586
aaa(lp676
(lp677
I594
aI363
aI178
aa(lp678
I88
aI175
aI259
aaa(lp679
(lp680
I594
aI213
aI178
aa(lp681
I113
aI0
aaa(lp682
(lp683
I594
aI213
aI178
aa(lp684
I88
aI175
aI173
aaa(lp685
(lp686
I116
aI213
aI178
aa(lp687
I88
aI175
aI173
aaa(lp688
(lp689
I28
aI213
aI178
aa(lp690
I88
aI175
aI259
aaa(lp691
(lp692
I28
aI439
aI178
aa(lp693
I341
aI147
aI586
aI83
aI175
aI259
aaa(lp694
(lp695
I28
aI589
aI178
aa(lp696
I341
aI600
aI198
aI83
aI175
aI355
aaa(lp697
(lp698
I28
aI589
aI198
aa(lp699
I484
aI187
aI11
aI467
aI196
aI543
aI175
aI173
aaa(lp700
(lp701
I583
aI589
aI198
aa(lp702
I341
aI147
aI586
aI83
aI175
aI259
aaa(lp703
(lp704
I594
aI363
aI612
aa(lp705
I538
aI600
aI147
aI83
aI175
aI173
aaa(lp706
(lp707
I147
aI363
aI612
aa(lp708
I13
aI62
aI173
aI289
aI355
aaa(lp709
(lp710
I612
aI363
aI147
aa(lp711
I484
aI200
aI11
aI467
aI126
aI543
aI175
aI259
aaa(lp712
(lp713
I612
aI624
aI147
aa(lp714
I13
aI62
aI173
aI289
aI259
aaa(lp715
(lp716
I624
aI612
aI147
aa(lp717
I0
aI0
aI467
aI442
aaa(lp718
(lp719
I624
aI612
aI147
aa(lp720
I0
aI0
aI467
aI442
aaa(lp721
(lp722
I624
aI612
aI147
aa(lp723
I484
aI317
aI11
aI467
aI126
aI543
aI175
aI355
aaa(lp724
(lp725
I624
aI612
aI422
aa(lp726
I538
aI600
aI418
aI83
aI175
aI259
aaa(lp727
(lp728
I624
aI418
aI422
aa(lp729
I13
aI62
aI259
aI289
aI355
aaa(lp730
(lp731
I594
aI363
aI612
aa(lp732
I341
aI467
aI173
aI147
aI83
aI467
aI173
aI175
aaa(lp733
(lp734
I147
aI363
aI612
aa(lp735
I298
aI467
aI173
aI289
aI355
aI62
aaa(lp736
(lp737
I612
aI363
aI147
aa(lp738
I484
aI200
aI11
aI467
aI126
aI543
aI467
aI259
aI175
aaa(lp739
(lp740
I612
aI624
aI147
aa(lp741
I298
aI467
aI173
aI289
aI259
aI62
aaa(lp742
(lp743
I624
aI612
aI147
aa(lp744
I0
aI0
aaa(lp745
(lp746
I624
aI612
aI147
aa(lp747
I0
aI0
aaa(lp748
(lp749
I624
aI612
aI147
aa(lp750
I484
aI317
aI11
aI467
aI126
aI543
aI467
aI355
aI175
aaa(lp751
(lp752
I624
aI612
aI422
aa(lp753
I341
aI467
aI259
aI418
aI0
aI467
aI259
aI175
aaa(lp754
(lp755
I624
aI418
aI422
aa(lp756
I298
aI467
aI259
aI289
aI355
aI62
aaa(lp757
(lp758
I594
aI363
aI540
aa(lp759
I298
aI62
aI173
aI289
aI355
aaa(lp760
(lp761
I540
aI363
aI594
aa(lp762
I341
aI545
aaa(lp763
(lp764
I545
aI363
aI594
aa(lp765
I484
aI205
aI11
aI467
aI196
aI543
aI175
aI173
aaa(lp766
(lp767
I378
aI363
aI594
aa(lp768
I298
aI173
aI289
aI355
aaa(lp769
(lp770
I594
aI363
aI378
aa(lp771
I113
aI0
aaa(lp772
(lp773
I594
aI363
aI378
aa(lp774
I484
aI546
aI11
aI467
aI196
aI543
aI259
aaa(lp775
(lp776
I594
aI530
aI378
aa(lp777
I298
aI173
aI289
aI355
aaa(lp778
(lp779
I378
aI530
aI594
aa(lp780
I113
aI0
aaa(lp781
(lp782
I378
aI530
aI594
aa(lp783
I298
aI173
aI289
aI355
aaa(lp784
(lp785
I594
aI363
aI540
aa(lp786
I13
aI62
aI173
aI289
aI355
aaa(lp787
(lp788
I540
aI363
aI594
aa(lp789
I538
aI600
aI545
aI83
aI467
aI230
aI543
aI175
aI173
aaa(lp790
(lp791
I545
aI363
aI594
aa(lp792
I484
aI205
aI11
aI467
aI230
aI543
aI175
aI173
aaa(lp793
(lp794
I378
aI363
aI594
aa(lp795
I13
aI62
aI173
aI289
aI355
aaa(lp796
(lp797
I594
aI363
aI378
aa(lp798
I0
aI0
aI467
aI442
aaa(lp799
(lp800
I594
aI363
aI378
aa(lp801
I484
aI546
aI11
aI467
aI230
aI543
aI175
aI259
aaa(lp802
(lp803
I594
aI530
aI378
aa(lp804
I13
aI62
aI173
aI289
aI355
aaa(lp805
(lp806
I378
aI530
aI594
aa(lp807
I0
aI0
aI467
aI442
aaa(lp808
(lp809
I378
aI530
aI594
aa(lp810
I13
aI62
aI173
aI289
aI355
aaa(lp811
(lp812
I594
aI363
aI540
aa(lp813
I13
aI467
aI173
aI289
aI355
aI62
aaa(lp814
(lp815
I540
aI363
aI594
aa(lp816
I341
aI467
aI355
aI545
aI83
aI467
aI173
aI175
aaa(lp817
(lp818
I545
aI363
aI594
aa(lp819
I484
aI205
aI11
aI467
aI230
aI543
aI467
aI173
aI175
aaa(lp820
(lp821
I378
aI363
aI594
aa(lp822
I298
aI467
aI173
aI289
aI355
aI62
aaa(lp823
(lp824
I594
aI363
aI378
aa(lp825
I0
aI0
aaa(lp826
(lp827
I594
aI363
aI378
aa(lp828
I484
aI546
aI11
aI467
aI230
aI543
aI467
aI259
aI175
aaa(lp829
(lp830
I594
aI530
aI378
aa(lp831
I298
aI467
aI173
aI289
aI355
aI62
aaa(lp832
(lp833
I378
aI530
aI594
aa(lp834
I0
aI0
aaa(lp835
(lp836
I378
aI530
aI594
aa(lp837
I298
aI467
aI173
aI289
aI355
aI62
aaa(lp838
(lp839
I594
aI526
aI150
aa(lp840
I484
aI418
aI11
aI467
aI126
aI543
aI175
aI173
aaa(lp841
(lp842
I280
aI526
aI150
aa(lp843
I278
aI175
aI259
aaa(lp844
(lp845
I280
aI587
aI150
aa(lp846
I341
aI375
aaa(lp847
(lp848
I280
aI587
aI375
aa(lp849
I113
aI0
aaa(lp850
(lp851
I280
aI587
aI375
aa(lp852
I298
aI62
aI173
aI289
aI259
aaa(lp853
(lp854
I587
aI280
aI375
aa(lp855
I225
aaa(lp856
(lp857
I280
aI587
aI375
aa(lp858
I113
aI0
aaa(lp859
(lp860
I280
aI587
aI375
aa(lp861
I341
aI147
aaa(lp862
(lp863
I600
aI587
aI375
aa(lp864
I341
aI375
aaa(lp865
(lp866
I594
aI526
aI150
aa(lp867
I484
aI600
aI418
aI11
aI467
aI126
aI543
aI175
aI173
aaa(lp868
(lp869
I280
aI526
aI150
aa(lp870
I278
aI175
aI259
aaa(lp871
(lp872
I280
aI587
aI150
aa(lp873
I538
aI600
aI375
aI83
aI467
aI126
aI543
aI175
aI355
aaa(lp874
(lp875
I280
aI587
aI375
aa(lp876
I0
aI0
aI467
aI442
aaa(lp877
(lp878
I280
aI587
aI375
aa(lp879
I13
aI62
aI173
aI289
aI259
aaa(lp880
(lp881
I587
aI280
aI375
aa(lp882
I13
aI62
aI173
aI289
aI259
aaa(lp883
(lp884
I280
aI587
aI375
aa(lp885
I0
aI0
aI467
aI442
aaa(lp886
(lp887
I280
aI587
aI375
aa(lp888
I538
aI600
aI147
aI83
aI175
aI173
aaa(lp889
(lp890
I600
aI587
aI375
aa(lp891
I593
aI175
aI355
aaa(lp892
(lp893
I594
aI363
aI531
aa(lp894
I484
aI627
aI11
aI467
aI230
aI543
aI467
aI173
aI175
aaa(lp895
(lp896
I117
aI363
aI531
aa(lp897
I341
aI195
aI543
aI467
aI355
aI175
aaa(lp898
(lp899
I117
aI363
aI37
aa(lp900
I0
aI0
aaa(lp901
(lp902
I117
aI363
aI37
aa(lp903
I484
aI501
aI11
aI467
aI230
aI543
aI467
aI173
aI175
aaa(lp904
(lp905
I487
aI363
aI37
aa(lp906
I278
aI467
aI355
aI175
aaa(lp907
(lp908
I487
aI363
aI531
aa(lp909
I0
aI0
aaa(lp910
(lp911
I487
aI363
aI531
aa(lp912
I484
aI340
aI11
aI467
aI230
aI543
aI467
aI259
aI175
aaa(lp913
(lp914
I487
aI476
aI531
aa(lp915
I225
aI467
aI355
aI609
aaa(lp916
(lp917
I487
aI363
aI531
aa(lp918
I278
aI467
aI259
aI175
aaa(lp919
(lp920
I594
aI363
aI339
aa(lp921
I113
aI0
aI515
aI147
aI67
aaa(lp922
(lp923
I594
aI363
aI339
aa(lp924
I484
aI385
aI11
aI467
aI196
aI543
aI467
aI173
aI175
aaa(lp925
(lp926
I601
aI363
aI339
aa(lp927
I484
aI463
aI11
aI467
aI126
aI543
aI467
aI173
aI175
aaa(lp928
(lp929
I429
aI363
aI339
aa(lp930
I13
aI467
aI173
aI289
aI355
aI62
aaa(lp931
(lp932
I339
aI363
aI429
aa(lp933
I341
aI153
aI83
aI467
aI173
aI175
aaa(lp934
(lp935
I153
aI363
aI429
aa(lp936
I484
aI363
aI11
aI467
aI259
aI175
aaa(lp937
(lp938
I153
aI213
aI429
aa(lp939
I484
aI153
aI511
aI11
aI467
aI173
aI175
aaa(lp940
(lp941
I339
aI213
aI429
aa(lp942
I484
aI232
aI11
aI467
aI230
aI543
aI467
aI355
aI175
aaa(lp943
(lp944
I339
aI213
aI236
aa(lp945
I341
aI153
aI83
aI467
aI173
aI175
aaa(lp946
(lp947
I594
aI363
aI339
aa(lp948
I113
aI0
aaa(lp949
(lp950
I594
aI363
aI339
aa(lp951
I484
aI0
aI11
aI467
aI230
aI543
aI175
aI173
aaa(lp952
(lp953
I601
aI363
aI339
aa(lp954
I484
aI463
aI11
aI467
aI126
aI543
aI175
aI173
aaa(lp955
(lp956
I429
aI363
aI339
aa(lp957
I13
aI175
aI173
aI289
aI175
aI355
aaa(lp958
(lp959
I339
aI363
aI429
aa(lp960
I341
aI147
aI153
aI83
aI175
aI173
aaa(lp961
(lp962
I153
aI363
aI429
aa(lp963
I88
aI175
aI259
aaa(lp964
(lp965
I153
aI213
aI429
aa(lp966
I88
aI175
aI173
aaa(lp967
(lp968
I339
aI213
aI429
aa(lp969
I484
aI147
aI232
aI11
aI467
aI196
aI543
aI175
aI355
aaa(lp970
(lp971
I339
aI213
aI236
aa(lp972
I341
aI147
aI153
aI83
aI175
aI173
aaa(lp973
(lp974
I594
aI363
aI210
aa(lp975
I484
aI622
aI11
aI467
aI126
aI543
aI467
aI355
aI175
aaa(lp976
(lp977
I594
aI363
aI42
aa(lp978
I13
aI467
aI355
aI259
aI62
aaa(lp979
(lp980
I594
aI42
aI363
aa(lp981
I0
aI467
aI0
aI0
aaa(lp982
(lp983
I594
aI102
aI363
aa(lp984
I13
aI467
aI173
aI289
aI355
aI62
aaa(lp985
(lp986
I363
aI102
aI594
aa(lp987
I484
aI325
aI11
aI467
aI126
aI543
aI467
aI173
aI175
aaa(lp988
(lp989
I192
aI102
aI594
aa(lp990
I278
aI467
aI355
aI175
aaa(lp991
(lp992
I192
aI102
aI116
aa(lp993
I278
aI467
aI259
aI175
aaa(lp994
(lp995
I192
aI5
aI116
aa(lp996
I13
aI467
aI173
aI259
aI62
aaa(lp997
(lp998
I5
aI192
aI116
aa(lp999
I13
aI467
aI355
aI259
aI62
aaa(lp1000
(lp1001
I594
aI363
aI210
aa(lp1002
I484
aI622
aI11
aI467
aI126
aI543
aI467
aI355
aI175
aaa(lp1003
(lp1004
I594
aI363
aI42
aa(lp1005
I298
aI467
aI259
aI289
aI355
aI62
aaa(lp1006
(lp1007
I594
aI42
aI363
aa(lp1008
I162
aI467
aI622
aI11
aI467
aI196
aI543
aI467
aI259
aI175
aaa(lp1009
(lp1010
I594
aI102
aI363
aa(lp1011
I298
aI467
aI173
aI289
aI355
aI62
aaa(lp1012
(lp1013
I363
aI102
aI594
aa(lp1014
I484
aI325
aI11
aI467
aI126
aI543
aI467
aI173
aI175
aaa(lp1015
(lp1016
I192
aI102
aI594
aa(lp1017
I484
aI594
aI11
aI467
aI196
aI543
aI467
aI355
aI175
aaa(lp1018
(lp1019
I192
aI102
aI116
aa(lp1020
I484
aI102
aI11
aI467
aI196
aI543
aI467
aI259
aI175
aaa(lp1021
(lp1022
I192
aI5
aI116
aa(lp1023
I298
aI467
aI173
aI289
aI259
aI62
aaa(lp1024
(lp1025
I5
aI192
aI116
aa(lp1026
I298
aI467
aI259
aI289
aI355
aI62
aaa(lp1027
(lp1028
I594
aI363
aI150
aa(lp1029
I278
aI467
aI173
aI175
aaa(lp1030
(lp1031
I116
aI363
aI150
aa(lp1032
I484
aI626
aI606
aI467
aI565
aI543
aI467
aI355
aI175
aaa(lp1033
(lp1034
I116
aI363
aI184
aa(lp1035
I593
aI467
aI173
aI305
aI543
aI467
aI173
aI175
aaa(lp1036
(lp1037
I274
aI363
aI184
aa(lp1038
I13
aI467
aI355
aI259
aI62
aaa(lp1039
(lp1040
I274
aI184
aI363
aa(lp1041
I593
aI153
aI83
aI467
aI259
aI175
aaa(lp1042
(lp1043
I274
aI179
aI363
aa(lp1044
I484
aI493
aI606
aI467
aI126
aI543
aI467
aI355
aI175
aaa(lp1045
(lp1046
I274
aI179
aI56
aa(lp1047
I593
aI467
aI355
aI305
aI543
aI467
aI259
aI175
aaa(lp1048
(lp1049
I274
aI398
aI56
aa(lp1050
I593
aI467
aI173
aI305
aI543
aI467
aI355
aI175
aaa(lp1051
(lp1052
I274
aI398
aI509
aa(lp1053
I484
aI449
aI606
aI467
aI565
aI543
aI467
aI173
aI175
aaa(lp1054
(lp1055
I594
aI143
aI434
aa(lp1056
I341
aI600
aI103
aI83
aI467
aI259
aI175
aaa(lp1057
(lp1058
I594
aI103
aI434
aa(lp1059
I341
aI600
aI147
aI83
aI467
aI173
aI175
aaa(lp1060
(lp1061
I147
aI103
aI434
aa(lp1062
I13
aI467
aI173
aI289
aI355
aI175
aaa(lp1063
(lp1064
I434
aI103
aI147
aa(lp1065
I341
aI147
aI110
aI83
aI467
aI173
aI175
aaa(lp1066
(lp1067
I110
aI103
aI147
aa(lp1068
I341
aI467
aI259
aI175
aaa(lp1069
(lp1070
I110
aI147
aa(lp1071
I0
aI0
aaa(lp1072
(lp1073
I110
aI147
aa(lp1074
I13
aI467
aI173
aI289
aI355
aI175
aaa(lp1075
(lp1076
I147
aI110
aa(lp1077
I0
aI0
aaa(lp1078
(lp1079
I110
aI147
aa(lp1080
I0
aI0
aaa(lp1081
(lp1082
I594
aI363
aI8
aa(lp1083
I0
aI467
aI0
aI0
aaa(lp1084
(lp1085
I594
aI363
aI8
aa(lp1086
I0
aI467
aI0
aI0
aaa(lp1087
(lp1088
I594
aI363
aI8
aa(lp1089
I484
aI110
aI606
aI126
aI543
aI259
aI175
aaa(lp1090
(lp1091
I594
aI246
aI8
aa(lp1092
I413
aI467
aI158
aI543
aI467
aI259
aI175
aaa(lp1093
(lp1094
I594
aI237
aI8
aa(lp1095
I13
aI467
aI173
aI289
aI355
aI62
aaa(lp1096
(lp1097
I8
aI237
aI594
aa(lp1098
I484
aI501
aI606
aI467
aI565
aI543
aI467
aI355
aI175
aaa(lp1099
(lp1100
I8
aI237
aI254
aa(lp1101
I593
aI239
aI83
aI467
aI442
aI175
aaa(lp1102
(lp1103
I8
aI237
aI287
aa(lp1104
I484
aI0
aI606
aI467
aI565
aI543
aI467
aI259
aI175
aaa(lp1105
(lp1106
I8
aI135
aI287
aa(lp1107
I593
aI467
aI355
aI305
aI543
aI467
aI442
aI175
aaa(lp1108
(lp1109
I594
aI363
aI434
aa(lp1110
I484
aI101
aI11
aI467
aI230
aI543
aI467
aI173
aI175
aaa(lp1111
(lp1112
I27
aI363
aI434
aa(lp1113
I341
aI586
aI83
aI467
aI259
aI175
aaa(lp1114
(lp1115
I27
aI586
aI434
aa(lp1116
I298
aI467
aI173
aI289
aI355
aI62
aaa(lp1117
(lp1118
I434
aI586
aI27
aa(lp1119
I0
aI0
aaa(lp1120
(lp1121
I434
aI586
aI27
aa(lp1122
I484
aI79
aI11
aI467
aI230
aI543
aI467
aI173
aI175
aaa(lp1123
(lp1124
I244
aI586
aI27
aa(lp1125
I413
aI467
aI355
aI175
aaa(lp1126
(lp1127
I244
aI586
aI416
aa(lp1128
I341
aI467
aI355
aI110
aI83
aI467
aI173
aI175
aaa(lp1129
(lp1130
I54
aI586
aI416
aa(lp1131
I484
aI586
aI11
aI467
aI259
aI175
aaa(lp1132
(lp1133
I54
aI363
aI416
aa(lp1134
I484
aI228
aI11
aI467
aI230
aI543
aI467
aI355
aI175
aaa(lp1135
(lp1136
I594
aI363
aI362
aa(lp1137
I341
aI239
aI83
aI467
aI126
aI543
aI467
aI355
aI175
aaa(lp1138
(lp1139
I594
aI363
aI239
aa(lp1140
I341
aI467
aI355
aI175
aaa(lp1141
(lp1142
I594
aI363
aa(lp1143
I341
aI586
aI83
aI467
aI126
aI543
aI467
aI259
aI175
aaa(lp1144
(lp1145
I594
aI586
aa(lp1146
I484
aI322
aI83
aI467
aI259
aI175
aaa(lp1147
(lp1148
I594
aI258
aa(lp1149
I484
aI303
aI11
aI467
aI126
aI543
aI467
aI173
aI175
aaa(lp1150
(lp1151
I33
aI258
aa(lp1152
I341
aI103
aI83
aI467
aI259
aI175
aaa(lp1153
(lp1154
I33
aI571
aa(lp1155
I341
aI586
aI83
aI467
aI259
aI175
aaa(lp1156
(lp1157
I33
aI590
aa(lp1158
I0
aI0
aaa(lp1159
(lp1160
I33
aI590
aa(lp1161
I0
aI0
aaa(lp1162
(lp1163
I594
aI363
aI247
aa(lp1164
I13
aI467
aI355
aI289
aI259
aI62
aaa(lp1165
(lp1166
I594
aI247
aI363
aa(lp1167
I341
aI600
aI343
aI83
aI467
aI259
aI175
aaa(lp1168
(lp1169
I594
aI343
aI363
aa(lp1170
I88
aI467
aI173
aI175
aaa(lp1171
(lp1172
I116
aI343
aI363
aa(lp1173
I484
aI118
aI11
aI467
aI196
aI543
aI467
aI259
aI175
aaa(lp1174
(lp1175
I116
aI290
aI363
aa(lp1176
I13
aI467
aI173
aI289
aI355
aI62
aaa(lp1177
(lp1178
I363
aI290
aI116
aa(lp1179
I113
aI0
aaa(lp1180
(lp1181
I363
aI290
aI116
aa(lp1182
I88
aI467
aI355
aI175
aaa(lp1183
(lp1184
I363
aI290
aI28
aa(lp1185
I484
aI263
aI11
aI467
aI126
aI543
aI467
aI259
aI175
aaa(lp1186
(lp1187
I363
aI177
aI28
aa(lp1188
I13
aI467
aI173
aI289
aI355
aI62
aaa(lp1189
(lp1190
I594
aI363
aI462
aa(lp1191
I484
aI393
aI11
aI467
aI230
aI543
aI467
aI173
aI175
aaa(lp1192
(lp1193
I547
aI363
aI462
aa(lp1194
I484
aI462
aI11
aI467
aI355
aI175
aaa(lp1195
(lp1196
I547
aI363
aI512
aa(lp1197
I341
aI147
aI466
aI83
aI467
aI355
aI175
aaa(lp1198
(lp1199
I547
aI363
aI558
aa(lp1200
I13
aI467
aI173
aI289
aI355
aI62
aaa(lp1201
(lp1202
I558
aI363
aI547
aa(lp1203
I484
aI627
aI11
aI467
aI230
aI543
aI467
aI355
aI175
aaa(lp1204
(lp1205
I558
aI363
aI50
aa(lp1206
I413
aI467
aI158
aI543
aI467
aI355
aI175
aaa(lp1207
(lp1208
I558
aI363
aI345
aa(lp1209
I13
aI467
aI173
aI289
aI259
aI62
aaa(lp1210
(lp1211
I363
aI558
aI345
aa(lp1212
I341
aI147
aI586
aI83
aI467
aI173
aI175
aaa(lp1213
(lp1214
I586
aI558
aI345
aa(lp1215
I413
aI467
aI158
aI543
aI467
aI355
aI175
aaa(lp1216
(lp1217
I594
aI526
aI8
aa(lp1218
I13
aI467
aI259
aI289
aI355
aI62
aaa(lp1219
(lp1220
I594
aI8
aI526
aa(lp1221
I484
aI445
aI11
aI467
aI196
aI543
aI467
aI259
aI175
aaa(lp1222
(lp1223
I594
aI404
aI526
aa(lp1224
I13
aI467
aI259
aI289
aI355
aI62
aaa(lp1225
(lp1226
I594
aI526
aI404
aa(lp1227
I13
aI467
aI173
aI289
aI355
aI62
aaa(lp1228
(lp1229
I404
aI526
aI594
aa(lp1230
I484
aI613
aI11
aI467
aI126
aI543
aI467
aI355
aI175
aaa(lp1231
(lp1232
I404
aI526
aI0
aa(lp1233
I484
aI356
aI11
aI467
aI230
aI543
aI467
aI355
aI175
aaa(lp1234
(lp1235
I404
aI526
aI18
aa(lp1236
I484
aI146
aI11
aI467
aI230
aI543
aI467
aI259
aI175
aaa(lp1237
(lp1238
I404
aI261
aI18
aa(lp1239
I341
aI103
aI83
aI467
aI173
aI175
aaa(lp1240
(lp1241
I319
aI261
aI18
aa(lp1242
I484
aI49
aI11
aI467
aI196
aI543
aI467
aI259
aI175
aaa(lp1243
(lp1244
I594
aI526
aI8
aa(lp1245
I298
aI467
aI259
aI289
aI355
aI62
aaa(lp1246
(lp1247
I594
aI8
aI526
aa(lp1248
I484
aI445
aI11
aI467
aI230
aI543
aI467
aI259
aI175
aaa(lp1249
(lp1250
I594
aI404
aI526
aa(lp1251
I298
aI467
aI259
aI289
aI355
aI62
aaa(lp1252
(lp1253
I594
aI526
aI404
aa(lp1254
I298
aI467
aI173
aI289
aI355
aI62
aaa(lp1255
(lp1256
I404
aI526
aI594
aa(lp1257
I484
aI613
aI11
aI467
aI126
aI543
aI467
aI355
aI175
aaa(lp1258
(lp1259
I404
aI526
aI0
aa(lp1260
I484
aI356
aI11
aI467
aI230
aI543
aI467
aI355
aI175
aaa(lp1261
(lp1262
I404
aI526
aI18
aa(lp1263
I484
aI146
aI11
aI467
aI230
aI543
aI467
aI259
aI175
aaa(lp1264
(lp1265
I404
aI261
aI18
aa(lp1266
I341
aI103
aI83
aI467
aI230
aI543
aI467
aI173
aI175
aaa(lp1267
(lp1268
I319
aI261
aI18
aa(lp1269
I484
aI49
aI11
aI467
aI230
aI543
aI467
aI259
aI175
aaa(lp1270
(lp1271
I594
aI363
aI46
aa(lp1272
I298
aI62
aI173
aI289
aI259
aaa(lp1273
(lp1274
I363
aI594
aI46
aa(lp1275
I113
aI0
aaa(lp1276
(lp1277
I363
aI594
aI46
aa(lp1278
I278
aI175
aI259
aaa(lp1279
(lp1280
I363
aI116
aI46
aa(lp1281
I278
aI175
aI355
aaa(lp1282
(lp1283
I363
aI116
aI130
aa(lp1284
I341
aI586
aaa(lp1285
(lp1286
I586
aI116
aI130
aa(lp1287
I514
aaa(lp1288
(lp1289
I116
aI130
aa(lp1290
I298
aI173
aI289
aI259
aaa(lp1291
(lp1292
I130
aI116
aa(lp1293
I341
aI147
aaa(lp1294
(lp1295
I130
aI274
aa(lp1296
I113
aI0
aaa(lp1297
(lp1298
I594
aI312
aI612
aa(lp1299
I484
aI0
aI11
aI467
aI126
aI543
aI467
aI173
aI175
aaa(lp1300
(lp1301
I349
aI312
aI612
aa(lp1302
I0
aI0
aI11
aI0
aI67
aaa(lp1303
(lp1304
I349
aI312
aI612
aa(lp1305
I484
aI346
aI11
aI467
aI126
aI543
aI467
aI259
aI175
aaa(lp1306
(lp1307
I349
aI58
aI612
aa(lp1308
I341
aI418
aI83
aI467
aI126
aI543
aI467
aI355
aI175
aaa(lp1309
(lp1310
I349
aI58
aI418
aa(lp1311
I413
aI467
aI158
aI543
aI467
aI554
aI435
aI467
aI173
aI175
aaa(lp1312
(lp1313
I458
aI58
aI418
aa(lp1314
I484
aI373
aI11
aI467
aI196
aI543
aI467
aI259
aI175
aaa(lp1315
(lp1316
I458
aI461
aI418
aa(lp1317
I341
aI153
aI83
aI467
aI196
aI543
aI467
aI259
aI175
aaa(lp1318
(lp1319
I458
aI382
aI418
aa(lp1320
I484
aI163
aI11
aI467
aI196
aI543
aI467
aI355
aI175
aaa(lp1321
(lp1322
I458
aI382
aI45
aa(lp1323
I298
aI467
aI259
aI289
aI355
aI62
aaa(lp1324
(lp1325
I594
aI312
aI612
aa(lp1326
I484
aI105
aI11
aI467
aI126
aI543
aI175
aI173
aaa(lp1327
(lp1328
I349
aI312
aI612
aa(lp1329
I113
aI0
aaa(lp1330
(lp1331
I349
aI312
aI612
aa(lp1332
I484
aI346
aI11
aI467
aI126
aI543
aI175
aI259
aaa(lp1333
(lp1334
I349
aI58
aI612
aa(lp1335
I341
aI418
aaa(lp1336
(lp1337
I349
aI58
aI418
aa(lp1338
I413
aI175
aI173
aaa(lp1339
(lp1340
I458
aI58
aI418
aa(lp1341
I484
aI373
aI11
aI467
aI196
aI543
aI175
aI259
aaa(lp1342
(lp1343
I458
aI461
aI418
aa(lp1344
I341
aI153
aaa(lp1345
(lp1346
I458
aI382
aI418
aa(lp1347
I484
aI163
aI11
aI467
aI196
aI543
aI355
aaa(lp1348
(lp1349
I458
aI382
aI45
aa(lp1350
I298
aI259
aI289
aI355
aaa(lp1351
(lp1352
I594
aI312
aI612
aa(lp1353
I484
aI0
aI11
aI467
aI126
aI543
aI467
aI173
aI175
aaa(lp1354
(lp1355
I349
aI312
aI612
aa(lp1356
I0
aI0
aaa(lp1357
(lp1358
I349
aI312
aI612
aa(lp1359
I484
aI346
aI11
aI467
aI126
aI543
aI467
aI259
aI175
aaa(lp1360
(lp1361
I349
aI58
aI612
aa(lp1362
I341
aI418
aI83
aI467
aI126
aI543
aI467
aI355
aI175
aaa(lp1363
(lp1364
I349
aI58
aI418
aa(lp1365
I413
aI467
aI173
aI175
aaa(lp1366
(lp1367
I458
aI58
aI418
aa(lp1368
I484
aI373
aI11
aI467
aI230
aI543
aI467
aI259
aI175
aaa(lp1369
(lp1370
I458
aI461
aI418
aa(lp1371
I341
aI153
aI83
aI467
aI230
aI543
aI467
aI259
aI175
aaa(lp1372
(lp1373
I458
aI382
aI418
aa(lp1374
I484
aI163
aI11
aI467
aI230
aI543
aI467
aI355
aI175
aaa(lp1375
(lp1376
I458
aI382
aI45
aa(lp1377
I298
aI467
aI259
aI289
aI355
aI175
aaa(lp1378
(lp1379
I594
aI312
aI540
aa(lp1380
I484
aI219
aI11
aI467
aI126
aI543
aI467
aI173
aI175
aaa(lp1381
(lp1382
I610
aI312
aI540
aa(lp1383
I341
aI466
aI83
aI467
aI173
aI175
aaa(lp1384
(lp1385
I438
aI312
aI540
aa(lp1386
I341
aI232
aI83
aI467
aI173
aI175
aaa(lp1387
(lp1388
I284
aI312
aI540
aa(lp1389
I413
aI467
aI158
aI543
aI467
aI355
aI175
aaa(lp1390
(lp1391
I284
aI312
aI540
aa(lp1392
I13
aI467
aI173
aI289
aI355
aI62
aaa(lp1393
(lp1394
I540
aI312
aI284
aa(lp1395
I13
aI467
aI355
aI259
aI62
aaa(lp1396
(lp1397
I540
aI284
aI312
aa(lp1398
I484
aI380
aI11
aI467
aI230
aI543
aI467
aI259
aI175
aaa(lp1399
(lp1400
I540
aI376
aI312
aa(lp1401
I413
aI467
aI158
aI543
aI467
aI264
aI175
aaa(lp1402
(lp1403
I540
aI376
aI312
aa(lp1404
I341
aI239
aI83
aI467
aI259
aI175
aaa(lp1405
(lp1406
I594
aI312
aI540
aa(lp1407
I484
aI219
aI11
aI467
aI126
aI543
aI175
aI173
aaa(lp1408
(lp1409
I610
aI312
aI540
aa(lp1410
I341
aI466
aaa(lp1411
(lp1412
I438
aI312
aI540
aa(lp1413
I341
aI232
aaa(lp1414
(lp1415
I284
aI312
aI540
aa(lp1416
I113
aI0
aaa(lp1417
(lp1418
I284
aI312
aI540
aa(lp1419
I298
aI173
aI289
aI355
aaa(lp1420
(lp1421
I540
aI312
aI284
aa(lp1422
I298
aI259
aI289
aI355
aaa(lp1423
(lp1424
I540
aI284
aI312
aa(lp1425
I484
aI380
aI11
aI467
aI196
aI543
aI175
aI259
aaa(lp1426
(lp1427
I540
aI376
aI312
aa(lp1428
I113
aI0
aaa(lp1429
(lp1430
I540
aI376
aI312
aa(lp1431
I341
aI239
aaa(lp1432
(lp1433
I594
aI312
aI540
aa(lp1434
I484
aI219
aI11
aI467
aI126
aI543
aI467
aI173
aI175
aaa(lp1435
(lp1436
I610
aI312
aI540
aa(lp1437
I341
aI466
aI83
aI467
aI126
aI543
aI467
aI173
aI175
aaa(lp1438
(lp1439
I438
aI312
aI540
aa(lp1440
I341
aI232
aI83
aI467
aI126
aI543
aI467
aI173
aI175
aaa(lp1441
(lp1442
I284
aI312
aI540
aa(lp1443
I0
aI0
aaa(lp1444
(lp1445
I284
aI312
aI540
aa(lp1446
I298
aI467
aI173
aI289
aI355
aI62
aaa(lp1447
(lp1448
I540
aI312
aI284
aa(lp1449
I298
aI467
aI259
aI289
aI355
aI62
aaa(lp1450
(lp1451
I540
aI284
aI312
aa(lp1452
I484
aI380
aI11
aI467
aI230
aI543
aI467
aI259
aI175
aaa(lp1453
(lp1454
I540
aI376
aI312
aa(lp1455
I0
aI0
aaa(lp1456
(lp1457
I540
aI376
aI312
aa(lp1458
I341
aI239
aI83
aI467
aI259
aI175
aaa(lp1459
(lp1460
I594
aI312
aI531
aa(lp1461
I538
aI600
aI147
aI83
aI175
aI173
aaa(lp1462
(lp1463
I147
aI312
aI531
aa(lp1464
I538
aI147
aI37
aI83
aI175
aI355
aaa(lp1465
(lp1466
I147
aI312
aI37
aa(lp1467
I538
aI147
aI65
aI83
aI175
aI259
aaa(lp1468
(lp1469
I147
aI65
aI37
aa(lp1470
I278
aI175
aI173
aaa(lp1471
(lp1472
I594
aI65
aI37
aa(lp1473
I278
aI175
aI173
aaa(lp1474
(lp1475
I116
aI65
aI37
aa(lp1476
I484
aI524
aI11
aI467
aI126
aI543
aI175
aI173
aaa(lp1477
(lp1478
I111
aI65
aI37
aa(lp1479
I484
aI199
aI11
aI467
aI126
aI543
aI175
aI259
aaa(lp1480
(lp1481
I111
aI0
aI37
aa(lp1482
I13
aI62
aI173
aI289
aI355
aaa(lp1483
(lp1484
I37
aI0
aI111
aa(lp1485
I278
aI175
aI259
aaa(lp1486
(lp1487
I594
aI312
aI150
aa(lp1488
I484
aI198
aI11
aI467
aI126
aI543
aI467
aI355
aI175
aaa(lp1489
(lp1490
I594
aI312
aI336
aa(lp1491
I484
aI375
aI11
aI467
aI196
aI543
aI467
aI259
aI175
aaa(lp1492
(lp1493
I594
aI489
aI336
aa(lp1494
I484
aI617
aI11
aI467
aI196
aI543
aI467
aI259
aI175
aaa(lp1495
(lp1496
I594
aI23
aI336
aa(lp1497
I484
aI336
aI11
aI467
aI126
aI543
aI467
aI355
aI175
aaa(lp1498
(lp1499
I594
aI23
aI260
aa(lp1500
I0
aI0
aI11
aI0
aI67
aaa(lp1501
(lp1502
I594
aI23
aI260
aa(lp1503
I413
aI467
aI158
aI543
aI467
aI554
aI435
aI467
aI355
aI175
aaa(lp1504
(lp1505
I594
aI23
aI412
aa(lp1506
I298
aI467
aI173
aI289
aI259
aI62
aaa(lp1507
(lp1508
I23
aI594
aI412
aa(lp1509
I298
aI467
aI173
aI289
aI259
aI62
aaa(lp1510
(lp1511
I594
aI23
aI412
aa(lp1512
I413
aI467
aI158
aI543
aI467
aI554
aI435
aI467
aI355
aI175
aaa(lp1513
(lp1514
I594
aI312
aI150
aa(lp1515
I484
aI198
aI11
aI467
aI126
aI543
aI175
aI355
aaa(lp1516
(lp1517
I594
aI312
aI336
aa(lp1518
I484
aI375
aI11
aI467
aI196
aI543
aI175
aI259
aaa(lp1519
(lp1520
I594
aI489
aI336
aa(lp1521
I484
aI617
aI11
aI467
aI196
aI543
aI259
aaa(lp1522
(lp1523
I594
aI23
aI336
aa(lp1524
I278
aI175
aI355
aaa(lp1525
(lp1526
I594
aI23
aI260
aa(lp1527
I113
aI0
aaa(lp1528
(lp1529
I594
aI23
aI260
aa(lp1530
I413
aI175
aI355
aaa(lp1531
(lp1532
I594
aI23
aI412
aa(lp1533
I298
aI173
aI289
aI259
aaa(lp1534
(lp1535
I23
aI594
aI412
aa(lp1536
I225
aaa(lp1537
(lp1538
I594
aI23
aI412
aa(lp1539
I413
aI355
aaa(lp1540
(lp1541
I594
aI312
aI8
aa(lp1542
I278
aI175
aI173
aaa(lp1543
(lp1544
I116
aI312
aI8
aa(lp1545
I341
aI147
aaa(lp1546
(lp1547
I274
aI312
aI8
aa(lp1548
I341
aI505
aaa(lp1549
(lp1550
I274
aI312
aI505
aa(lp1551
I298
aI62
aI173
aI289
aI355
aaa(lp1552
(lp1553
I274
aI505
aI312
aa(lp1554
I341
aI147
aaa(lp1555
(lp1556
I594
aI505
aI312
aa(lp1557
I278
aI175
aI355
aaa(lp1558
(lp1559
I594
aI505
aI495
aa(lp1560
I514
aaa(lp1561
(lp1562
I594
aI505
aI221
aa(lp1563
I113
aI0
aaa(lp1564
(lp1565
I594
aI505
aI221
aa(lp1566
I484
aI516
aI11
aI467
aI126
aI543
aI175
aI259
aaa(lp1567
(lp1568
I594
aI526
aI584
aa(lp1569
I13
aI62
aI173
aI289
aI259
aaa(lp1570
(lp1571
I526
aI594
aI584
aa(lp1572
I278
aI175
aI259
aaa(lp1573
(lp1574
I526
aI116
aI584
aa(lp1575
I13
aI62
aI173
aI289
aI355
aaa(lp1576
(lp1577
I584
aI116
aI526
aa(lp1578
I538
aI600
aI147
aI83
aI175
aI259
aaa(lp1579
(lp1580
I584
aI274
aI526
aa(lp1581
I0
aI0
aI467
aI442
aaa(lp1582
(lp1583
I584
aI274
aI526
aa(lp1584
I13
aI62
aI173
aI289
aI355
aaa(lp1585
(lp1586
I526
aI274
aI584
aa(lp1587
I484
aI600
aI214
aI11
aI467
aI230
aI543
aI175
aI259
aaa(lp1588
(lp1589
I526
aI321
aI584
aa(lp1590
I278
aI175
aI355
aaa(lp1591
(lp1592
I526
aI321
aI573
aa(lp1593
I538
aI147
aI627
aI83
aI175
aI355
aaa(lp1594
(lp1595
I594
aI312
aI584
aa(lp1596
I278
aI175
aI355
aaa(lp1597
(lp1598
I594
aI312
aI573
aa(lp1599
I484
aI473
aI11
aI467
aI126
aI543
aI355
aaa(lp1600
(lp1601
I594
aI312
aI605
aa(lp1602
I484
aI40
aI11
aI467
aI126
aI543
aI355
aaa(lp1603
(lp1604
I594
aI312
aI94
aa(lp1605
I484
aI37
aI11
aI467
aI196
aI543
aI259
aaa(lp1606
(lp1607
I594
aI324
aI94
aa(lp1608
I413
aI175
aI259
aaa(lp1609
(lp1610
I594
aI190
aI94
aa(lp1611
I413
aI175
aI355
aaa(lp1612
(lp1613
I594
aI190
aI25
aa(lp1614
I341
aI366
aaa(lp1615
(lp1616
I594
aI190
aI253
aa(lp1617
I341
aI627
aaa(lp1618
(lp1619
I594
aI190
aI34
aa(lp1620
I484
aI303
aI11
aI467
aI126
aI543
aI259
aaa(lp1621
(lp1622
I594
aI312
aI584
aa(lp1623
I484
aI584
aI11
aI467
aI126
aI543
aI467
aI355
aI175
aaa(lp1624
(lp1625
I594
aI312
aI573
aa(lp1626
I484
aI473
aI11
aI467
aI126
aI543
aI467
aI355
aI175
aaa(lp1627
(lp1628
I594
aI312
aI605
aa(lp1629
I484
aI40
aI11
aI467
aI126
aI543
aI467
aI355
aI175
aaa(lp1630
(lp1631
I594
aI312
aI94
aa(lp1632
I484
aI65
aI11
aI467
aI126
aI543
aI467
aI259
aI175
aaa(lp1633
(lp1634
I594
aI324
aI94
aa(lp1635
I298
aI467
aI173
aI289
aI355
aI554
aI543
aI467
aI259
aI175
aaa(lp1636
(lp1637
I594
aI190
aI94
aa(lp1638
I413
aI467
aI355
aI175
aaa(lp1639
(lp1640
I594
aI190
aI25
aa(lp1641
I341
aI467
aI366
aI83
aI467
aI230
aI543
aI467
aI355
aI175
aaa(lp1642
(lp1643
I594
aI190
aI253
aa(lp1644
I341
aI147
aI627
aI83
aI467
aI126
aI543
aI467
aI355
aI175
aaa(lp1645
(lp1646
I594
aI190
aI34
aa(lp1647
I484
aI303
aI11
aI467
aI126
aI543
aI467
aI259
aI175
aaa(lp1648
(lp1649
I594
aI312
aI434
aa(lp1650
I0
aI0
aI467
aI442
aaa(lp1651
(lp1652
I594
aI312
aI434
aa(lp1653
I278
aI175
aI355
aaa(lp1654
(lp1655
I594
aI312
aI614
aa(lp1656
I13
aI62
aI173
aI289
aI259
aaa(lp1657
(lp1658
I312
aI594
aI614
aa(lp1659
I278
aI175
aI173
aaa(lp1660
(lp1661
I495
aI594
aI614
aa(lp1662
I484
aI570
aI11
aI467
aI230
aI543
aI175
aI259
aaa(lp1663
(lp1664
I495
aI68
aI614
aa(lp1665
I13
aI62
aI173
aI289
aI259
aaa(lp1666
(lp1667
I614
aI68
aI495
aa(lp1668
I484
aI0
aI11
aI467
aI126
aI543
aI175
aI355
aaa(lp1669
(lp1670
I614
aI68
aI572
aa(lp1671
I13
aI62
aI173
aI289
aI355
aaa(lp1672
(lp1673
I572
aI68
aI614
aa(lp1674
I413
aI467
aI158
aI543
aI175
aI259
aaa(lp1675
(lp1676
I594
aI312
aI362
aa(lp1677
I278
aI175
aI173
aaa(lp1678
(lp1679
I116
aI312
aI362
aa(lp1680
I484
aI103
aI11
aI467
aI196
aI543
aI175
aI173
aaa(lp1681
(lp1682
I171
aI312
aI362
aa(lp1683
I484
aI159
aI11
aI467
aI196
aI543
aI175
aI355
aaa(lp1684
(lp1685
I171
aI312
aI446
aa(lp1686
I298
aI259
aI289
aI355
aaa(lp1687
(lp1688
I171
aI446
aI312
aa(lp1689
I484
aI198
aI11
aI467
aI196
aI543
aI355
aaa(lp1690
(lp1691
I171
aI446
aI7
aa(lp1692
I484
aI359
aI11
aI467
aI126
aI543
aI259
aaa(lp1693
(lp1694
I171
aI154
aI7
aa(lp1695
I484
aI505
aI11
aI467
aI196
aI543
aI355
aaa(lp1696
(lp1697
I171
aI154
aI308
aa(lp1698
I413
aI175
aI355
aaa(lp1699
(lp1700
I171
aI154
aI556
aa(lp1701
I341
aI375
aI83
aI467
aI126
aI543
aI259
aaa(lp1702
(lp1703
I594
aI312
aI362
aa(lp1704
I88
aI467
aI173
aI175
aaa(lp1705
(lp1706
I116
aI312
aI362
aa(lp1707
I484
aI600
aI103
aI11
aI467
aI196
aI543
aI467
aI173
aI175
aaa(lp1708
(lp1709
I171
aI312
aI362
aa(lp1710
I484
aI159
aI11
aI467
aI196
aI543
aI467
aI355
aI175
aaa(lp1711
(lp1712
I171
aI312
aI446
aa(lp1713
I13
aI467
aI259
aI289
aI355
aI62
aaa(lp1714
(lp1715
I171
aI446
aI312
aa(lp1716
I484
aI600
aI198
aI11
aI467
aI196
aI543
aI467
aI355
aI175
aaa(lp1717
(lp1718
I171
aI446
aI7
aa(lp1719
I484
aI359
aI11
aI467
aI126
aI543
aI467
aI259
aI175
aaa(lp1720
(lp1721
I171
aI154
aI7
aa(lp1722
I484
aI147
aI505
aI11
aI467
aI196
aI543
aI467
aI355
aI175
aaa(lp1723
(lp1724
I171
aI154
aI308
aa(lp1725
I413
aI467
aI355
aI175
aaa(lp1726
(lp1727
I171
aI154
aI556
aa(lp1728
I341
aI467
aI375
aI606
aI467
aI126
aI543
aI467
aI259
aI175
aaa(lp1729
(lp1730
I594
aI312
aI362
aa(lp1731
I278
aI467
aI173
aI175
aaa(lp1732
(lp1733
I116
aI312
aI362
aa(lp1734
I484
aI600
aI103
aI11
aI467
aI230
aI543
aI467
aI173
aI175
aaa(lp1735
(lp1736
I171
aI312
aI362
aa(lp1737
I484
aI600
aI151
aI11
aI467
aI230
aI543
aI467
aI355
aI175
aaa(lp1738
(lp1739
I171
aI312
aI446
aa(lp1740
I13
aI62
aI259
aI289
aI355
aaa(lp1741
(lp1742
I171
aI446
aI312
aa(lp1743
I484
aI600
aI198
aI11
aI467
aI230
aI543
aI467
aI355
aI175
aaa(lp1744
(lp1745
I171
aI446
aI7
aa(lp1746
I484
aI359
aI11
aI467
aI126
aI543
aI467
aI259
aI175
aaa(lp1747
(lp1748
I171
aI154
aI7
aa(lp1749
I484
aI505
aI11
aI467
aI230
aI543
aI467
aI355
aI175
aaa(lp1750
(lp1751
I171
aI154
aI308
aa(lp1752
I413
aI467
aI158
aI543
aI467
aI355
aI175
aaa(lp1753
(lp1754
I171
aI154
aI556
aa(lp1755
I538
aI375
aI83
aI467
aI126
aI543
aI467
aI259
aI175
aaa(lp1756
(lp1757
I594
aI312
aI462
aa(lp1758
I0
aI0
aI467
aI442
aaa(lp1759
(lp1760
I594
aI312
aI462
aa(lp1761
I278
aI175
aI259
aaa(lp1762
(lp1763
I594
aI495
aI462
aa(lp1764
I538
aI147
aI65
aI83
aI175
aI259
aaa(lp1765
(lp1766
I594
aI194
aI462
aa(lp1767
I0
aI0
aI467
aI442
aaa(lp1768
(lp1769
I594
aI194
aI462
aa(lp1770
I278
aI175
aI355
aaa(lp1771
(lp1772
I594
aI194
aI512
aa(lp1773
I278
aI175
aI355
aaa(lp1774
(lp1775
I594
aI194
aI497
aa(lp1776
I13
aI62
aI173
aI289
aI355
aaa(lp1777
(lp1778
I497
aI194
aI594
aa(lp1779
I593
aI600
aI147
aI83
aI175
aI355
aaa(lp1780
(lp1781
I497
aI194
aI147
aa(lp1782
I0
aI0
aI467
aI442
aaa(lp1783
(lp1784
I594
aI143
aI362
aa(lp1785
I538
aI600
aI103
aI83
aI175
aI259
aaa(lp1786
(lp1787
I594
aI103
aI362
aa(lp1788
I13
aI62
aI173
aI289
aI355
aaa(lp1789
(lp1790
I362
aI103
aI594
aa(lp1791
I278
aI175
aI173
aaa(lp1792
(lp1793
I443
aI103
aI594
aa(lp1794
I0
aI0
aI467
aI442
aaa(lp1795
(lp1796
I443
aI103
aI594
aa(lp1797
I13
aI62
aI173
aI289
aI259
aaa(lp1798
(lp1799
I103
aI443
aI594
aa(lp1800
I484
aI356
aI11
aI467
aI230
aI543
aI175
aI355
aaa(lp1801
(lp1802
I103
aI443
aI394
aa(lp1803
I484
aI502
aI11
aI467
aI230
aI543
aI175
aI355
aaa(lp1804
(lp1805
I103
aI443
aI406
aa(lp1806
I0
aI0
aI467
aI442
aaa(lp1807
(lp1808
I103
aI443
aI406
aa(lp1809
I413
aI467
aI158
aI543
aI175
aI355
aaa(lp1810
(lp1811
I594
aI312
aI46
aa(lp1812
I0
aI0
aI11
aI0
aI67
aaa(lp1813
(lp1814
I594
aI312
aI46
aa(lp1815
I484
aI29
aI11
aI467
aI196
aI543
aI467
aI259
aI175
aaa(lp1816
(lp1817
I594
aI24
aI46
aa(lp1818
I484
aI181
aI11
aI467
aI196
aI543
aI467
aI259
aI175
aaa(lp1819
(lp1820
I594
aI44
aI46
aa(lp1821
I341
aI591
aI83
aI467
aI126
aI543
aI467
aI355
aI175
aaa(lp1822
(lp1823
I594
aI44
aI591
aa(lp1824
I341
aI147
aI83
aI467
aI126
aI543
aI467
aI173
aI175
aaa(lp1825
(lp1826
I147
aI44
aI591
aa(lp1827
I413
aI467
aI158
aI543
aI467
aI554
aI435
aI467
aI259
aI175
aaa(lp1828
(lp1829
I147
aI90
aI591
aa(lp1830
I484
aI359
aI11
aI467
aI126
aI543
aI467
aI355
aI175
aaa(lp1831
(lp1832
I147
aI90
aI562
aa(lp1833
I298
aI467
aI173
aI289
aI355
aI62
aaa(lp1834
(lp1835
I562
aI90
aI147
aa(lp1836
I298
aI467
aI259
aI289
aI355
aI62
aaa(lp1837
(lp1838
I594
aI312
aI46
aa(lp1839
I0
aI0
aaa(lp1840
(lp1841
I594
aI312
aI46
aa(lp1842
I484
aI29
aI11
aI467
aI230
aI543
aI467
aI259
aI175
aaa(lp1843
(lp1844
I594
aI24
aI46
aa(lp1845
I484
aI181
aI11
aI467
aI230
aI543
aI467
aI259
aI175
aaa(lp1846
(lp1847
I594
aI44
aI46
aa(lp1848
I341
aI591
aI83
aI467
aI126
aI543
aI467
aI355
aI175
aaa(lp1849
(lp1850
I594
aI44
aI591
aa(lp1851
I341
aI147
aI83
aI467
aI126
aI543
aI467
aI173
aI175
aaa(lp1852
(lp1853
I147
aI44
aI591
aa(lp1854
I413
aI467
aI259
aI175
aaa(lp1855
(lp1856
I147
aI90
aI591
aa(lp1857
I484
aI359
aI11
aI467
aI126
aI543
aI467
aI355
aI175
aaa(lp1858
(lp1859
I147
aI90
aI562
aa(lp1860
I298
aI467
aI173
aI289
aI355
aI62
aaa(lp1861
(lp1862
I562
aI90
aI147
aa(lp1863
I298
aI467
aI259
aI289
aI355
aI175
aaa(lp1864
(lp1865
I594
aI178
aI612
aa(lp1866
I484
aI3
aI11
aI467
aI126
aI543
aI175
aI259
aaa(lp1867
(lp1868
I594
aI507
aI612
aa(lp1869
I113
aI0
aaa(lp1870
(lp1871
I594
aI507
aI612
aa(lp1872
I298
aI62
aI173
aI289
aI355
aaa(lp1873
(lp1874
I612
aI507
aI594
aa(lp1875
I484
aI262
aI11
aI467
aI126
aI543
aI355
aaa(lp1876
(lp1877
I612
aI507
aI320
aa(lp1878
I514
aI175
aI259
aaa(lp1879
(lp1880
I612
aI57
aI320
aa(lp1881
I484
aI205
aI11
aI467
aI196
aI543
aI355
aaa(lp1882
(lp1883
I612
aI57
aI401
aa(lp1884
I413
aI259
aaa(lp1885
(lp1886
I612
aI368
aI401
aa(lp1887
I484
aI575
aI11
aI467
aI196
aI543
aI355
aaa(lp1888
(lp1889
I612
aI368
aI89
aa(lp1890
I484
aI204
aI11
aI467
aI126
aI543
aI259
aaa(lp1891
(lp1892
I594
aI178
aI612
aa(lp1893
I484
aI3
aI11
aI467
aI126
aI543
aI0
aaa(lp1894
(lp1895
I594
aI507
aI612
aa(lp1896
I0
aI0
aI467
aI442
aaa(lp1897
(lp1898
I594
aI507
aI612
aa(lp1899
I13
aI62
aI173
aI289
aI355
aaa(lp1900
(lp1901
I612
aI507
aI594
aa(lp1902
I484
aI262
aI11
aI467
aI126
aI543
aI175
aI355
aaa(lp1903
(lp1904
I612
aI507
aI320
aa(lp1905
I278
aI175
aI259
aaa(lp1906
(lp1907
I612
aI57
aI320
aa(lp1908
I484
aI205
aI11
aI467
aI230
aI543
aI175
aI355
aaa(lp1909
(lp1910
I612
aI57
aI401
aa(lp1911
I413
aI467
aI158
aI543
aI175
aI259
aaa(lp1912
(lp1913
I612
aI368
aI401
aa(lp1914
I484
aI575
aI11
aI467
aI230
aI543
aI175
aI355
aaa(lp1915
(lp1916
I612
aI368
aI89
aa(lp1917
I484
aI204
aI11
aI467
aI126
aI543
aI175
aI259
aaa(lp1918
(lp1919
I594
aI178
aI612
aa(lp1920
I484
aI3
aI11
aI467
aI126
aI543
aI467
aI259
aI175
aaa(lp1921
(lp1922
I594
aI507
aI612
aa(lp1923
I0
aI0
aaa(lp1924
(lp1925
I594
aI507
aI612
aa(lp1926
I298
aI467
aI173
aI289
aI355
aI62
aaa(lp1927
(lp1928
I612
aI507
aI594
aa(lp1929
I484
aI262
aI11
aI467
aI126
aI543
aI467
aI355
aI175
aaa(lp1930
(lp1931
I612
aI507
aI320
aa(lp1932
I484
aI507
aI11
aI467
aI126
aI543
aI467
aI259
aI175
aaa(lp1933
(lp1934
I612
aI57
aI320
aa(lp1935
I484
aI205
aI11
aI467
aI230
aI543
aI467
aI355
aI175
aaa(lp1936
(lp1937
I612
aI57
aI401
aa(lp1938
I413
aI467
aI259
aI175
aaa(lp1939
(lp1940
I612
aI368
aI401
aa(lp1941
I484
aI575
aI11
aI467
aI230
aI543
aI467
aI355
aI175
aaa(lp1942
(lp1943
I612
aI368
aI89
aa(lp1944
I484
aI204
aI11
aI467
aI126
aI543
aI467
aI259
aI175
aaa(lp1945
(lp1946
I594
aI178
aI540
aa(lp1947
I484
aI356
aI11
aI467
aI196
aI543
aI467
aI259
aI175
aaa(lp1948
(lp1949
I594
aI222
aI540
aa(lp1950
I71
aI467
aI259
aI289
aI355
aI62
aaa(lp1951
(lp1952
I594
aI540
aI222
aa(lp1953
I484
aI594
aI11
aI467
aI173
aI175
aaa(lp1954
(lp1955
I116
aI540
aI222
aa(lp1956
I341
aI600
aI147
aI83
aI467
aI173
aI175
aaa(lp1957
(lp1958
I274
aI540
aI222
aa(lp1959
I484
aI222
aI11
aI467
aI355
aI175
aaa(lp1960
(lp1961
I274
aI540
aI486
aa(lp1962
I13
aI467
aI259
aI289
aI355
aI62
aaa(lp1963
(lp1964
I274
aI486
aI540
aa(lp1965
I13
aI467
aI173
aI289
aI259
aI62
aaa(lp1966
(lp1967
I486
aI274
aI540
aa(lp1968
I13
aI467
aI173
aI289
aI259
aI62
aaa(lp1969
(lp1970
I274
aI486
aI540
aa(lp1971
I484
aI463
aI11
aI467
aI126
aI543
aI467
aI355
aI175
aaa(lp1972
(lp1973
I594
aI178
aI540
aa(lp1974
I484
aI356
aI11
aI467
aI196
aI543
aI175
aI259
aaa(lp1975
(lp1976
I594
aI222
aI540
aa(lp1977
I298
aI62
aI259
aI289
aI355
aaa(lp1978
(lp1979
I594
aI540
aI222
aa(lp1980
I278
aI175
aI173
aaa(lp1981
(lp1982
I116
aI540
aI222
aa(lp1983
I341
aI147
aaa(lp1984
(lp1985
I274
aI540
aI222
aa(lp1986
I278
aI175
aI355
aaa(lp1987
(lp1988
I274
aI540
aI486
aa(lp1989
I298
aI259
aI289
aI355
aaa(lp1990
(lp1991
I274
aI486
aI540
aa(lp1992
I298
aI173
aI289
aI259
aaa(lp1993
(lp1994
I486
aI274
aI540
aa(lp1995
I514
aaa(lp1996
(lp1997
I274
aI486
aI540
aa(lp1998
I484
aI463
aI11
aI467
aI126
aI543
aI355
aaa(lp1999
(lp2000
I594
aI178
aI540
aa(lp2001
I484
aI356
aI11
aI467
aI230
aI543
aI175
aI259
aaa(lp2002
(lp2003
I594
aI222
aI540
aa(lp2004
I13
aI62
aI259
aI289
aI355
aaa(lp2005
(lp2006
I594
aI540
aI222
aa(lp2007
I278
aI175
aI173
aaa(lp2008
(lp2009
I116
aI540
aI222
aa(lp2010
I538
aI600
aI147
aI83
aI467
aI230
aI543
aI175
aI173
aaa(lp2011
(lp2012
I274
aI540
aI222
aa(lp2013
I278
aI175
aI259
aaa(lp2014
(lp2015
I274
aI540
aI486
aa(lp2016
I13
aI62
aI259
aI289
aI355
aaa(lp2017
(lp2018
I274
aI486
aI540
aa(lp2019
I13
aI62
aI173
aI289
aI259
aaa(lp2020
(lp2021
I486
aI274
aI540
aa(lp2022
I13
aI62
aI173
aI289
aI259
aaa(lp2023
(lp2024
I274
aI486
aI540
aa(lp2025
I484
aI463
aI11
aI467
aI126
aI543
aI175
aI355
aaa(lp2026
(lp2027
I594
aI178
aI531
aa(lp2028
I341
aI195
aI543
aI467
aI173
aI175
aaa(lp2029
(lp2030
I147
aI178
aI531
aa(lp2031
I341
aI195
aI543
aI467
aI259
aI175
aaa(lp2032
(lp2033
I147
aI198
aI531
aa(lp2034
I278
aI467
aI173
aI175
aaa(lp2035
(lp2036
I594
aI198
aI531
aa(lp2037
I413
aI467
aI158
aI543
aI467
aI173
aI175
aaa(lp2038
(lp2039
I594
aI198
aI531
aa(lp2040
I278
aI467
aI355
aI175
aaa(lp2041
(lp2042
I594
aI198
aI93
aa(lp2043
I341
aI195
aI543
aI467
aI259
aI175
aaa(lp2044
(lp2045
I594
aI178
aI93
aa(lp2046
I413
aI467
aI158
aI543
aI467
aI355
aI175
aaa(lp2047
(lp2048
I594
aI178
aI93
aa(lp2049
I341
aI195
aI543
aI467
aI173
aI175
aaa(lp2050
(lp2051
I147
aI178
aI93
aa(lp2052
I13
aI467
aI173
aI259
aI62
aaa(lp2053
(lp2054
I594
aI178
aI531
aa(lp2055
I538
aI600
aI147
aI83
aI175
aI173
aaa(lp2056
(lp2057
I147
aI178
aI531
aa(lp2058
I538
aI600
aI198
aI83
aI175
aI259
aaa(lp2059
(lp2060
I147
aI198
aI531
aa(lp2061
I278
aI175
aI173
aaa(lp2062
(lp2063
I594
aI198
aI531
aa(lp2064
I0
aI0
aI467
aI442
aaa(lp2065
(lp2066
I594
aI198
aI531
aa(lp2067
I278
aI175
aI355
aaa(lp2068
(lp2069
I594
aI198
aI93
aa(lp2070
I278
aI175
aI259
aaa(lp2071
(lp2072
I594
aI178
aI93
aa(lp2073
I0
aI0
aI467
aI442
aaa(lp2074
(lp2075
I594
aI178
aI93
aa(lp2076
I538
aI600
aI147
aI83
aI175
aI173
aaa(lp2077
(lp2078
I147
aI178
aI93
aa(lp2079
I13
aI62
aI173
aI289
aI259
aaa(lp2080
(lp2081
I594
aI143
aI462
aa(lp2082
I278
aI467
aI259
aI175
aaa(lp2083
(lp2084
I594
aI52
aI462
aa(lp2085
I341
aI173
aI103
aI83
aI467
aI259
aI175
aaa(lp2086
(lp2087
I594
aI168
aI462
aa(lp2088
I484
aI245
aI11
aI467
aI196
aI543
aI467
aI259
aI175
aaa(lp2089
(lp2090
I594
aI20
aI462
aa(lp2091
I13
aI467
aI173
aI259
aI62
aaa(lp2092
(lp2093
I20
aI594
aI462
aa(lp2094
I13
aI467
aI355
aI259
aI62
aaa(lp2095
(lp2096
I20
aI462
aI594
aa(lp2097
I484
aI147
aI514
aI543
aI467
aI173
aI175
aI11
aI467
aI173
aI175
aaa(lp2098
(lp2099
I431
aI462
aI594
aa(lp2100
I0
aI0
aaa(lp2101
(lp2102
I431
aI462
aI594
aa(lp2103
I341
aI173
aI466
aI83
aI259
aI175
aaa(lp2104
(lp2105
I431
aI466
aI594
aa(lp2106
I13
aI173
aI289
aI355
aI62
aaa(lp2107
(lp2108
I594
aI178
aI531
aa(lp2109
I341
aI147
aI83
aI467
aI126
aI543
aI467
aI173
aI175
aaa(lp2110
(lp2111
I147
aI178
aI531
aa(lp2112
I341
aI198
aI83
aI467
aI126
aI543
aI467
aI259
aI175
aaa(lp2113
(lp2114
I147
aI198
aI531
aa(lp2115
I484
aI147
aI11
aI467
aI126
aI543
aI467
aI173
aI175
aaa(lp2116
(lp2117
I594
aI198
aI531
aa(lp2118
I0
aI0
aaa(lp2119
(lp2120
I594
aI198
aI531
aa(lp2121
I484
aI531
aI11
aI467
aI126
aI543
aI467
aI355
aI175
aaa(lp2122
(lp2123
I594
aI198
aI93
aa(lp2124
I484
aI198
aI11
aI467
aI126
aI543
aI467
aI259
aI175
aaa(lp2125
(lp2126
I594
aI178
aI93
aa(lp2127
I0
aI0
aaa(lp2128
(lp2129
I594
aI178
aI93
aa(lp2130
I341
aI147
aI83
aI467
aI126
aI543
aI467
aI173
aI175
aaa(lp2131
(lp2132
I147
aI178
aI93
aa(lp2133
I298
aI467
aI173
aI289
aI259
aI175
aaa(lp2134
(lp2135
I594
aI526
aI434
aa(lp2136
I278
aI175
aI259
aaa(lp2137
(lp2138
I594
aI587
aI434
aa(lp2139
I298
aI62
aI173
aI289
aI355
aaa(lp2140
(lp2141
I434
aI587
aI594
aa(lp2142
I298
aI173
aI289
aI259
aaa(lp2143
(lp2144
I587
aI434
aI594
aa(lp2145
I341
aI273
aaa(lp2146
(lp2147
I396
aI434
aI594
aa(lp2148
I484
aI146
aI11
aI467
aI196
aI543
aI355
aaa(lp2149
(lp2150
I396
aI434
aI452
aa(lp2151
I278
aI175
aI173
aaa(lp2152
(lp2153
I592
aI434
aI452
aa(lp2154
I298
aI259
aI289
aI355
aaa(lp2155
(lp2156
I592
aI452
aI434
aa(lp2157
I298
aI173
aI289
aI259
aaa(lp2158
(lp2159
I452
aI592
aI434
aa(lp2160
I113
aI0
aaa(lp2161
(lp2162
I594
aI526
aI434
aa(lp2163
I514
aI175
aI259
aaa(lp2164
(lp2165
I594
aI587
aI434
aa(lp2166
I13
aI175
aI173
aI289
aI355
aaa(lp2167
(lp2168
I434
aI587
aI594
aa(lp2169
I13
aI175
aI173
aI289
aI259
aaa(lp2170
(lp2171
I587
aI434
aI594
aa(lp2172
I341
aI147
aI273
aI83
aI175
aI173
aaa(lp2173
(lp2174
I396
aI434
aI594
aa(lp2175
I484
aI146
aI11
aI467
aI565
aI543
aI175
aI355
aaa(lp2176
(lp2177
I396
aI434
aI452
aa(lp2178
I514
aI175
aI173
aaa(lp2179
(lp2180
I592
aI434
aI452
aa(lp2181
I13
aI175
aI259
aI289
aI355
aaa(lp2182
(lp2183
I592
aI452
aI434
aa(lp2184
I13
aI175
aI259
aI289
aI173
aaa(lp2185
(lp2186
I452
aI592
aI434
aa(lp2187
I113
aI0
aaa(lp2188
(lp2189
I594
aI178
aI339
aa(lp2190
I0
aI0
aaa(lp2191
(lp2192
I594
aI178
aI339
aa(lp2193
I341
aI147
aI83
aI467
aI126
aI543
aI467
aI173
aI175
aaa(lp2194
(lp2195
I147
aI178
aI339
aa(lp2196
I484
aI0
aI11
aI467
aI230
aI543
aI467
aI259
aI175
aaa(lp2197
(lp2198
I147
aI335
aI339
aa(lp2199
I484
aI521
aI11
aI467
aI230
aI543
aI467
aI355
aI175
aaa(lp2200
(lp2201
I147
aI335
aI569
aa(lp2202
I413
aI467
aI259
aI175
aaa(lp2203
(lp2204
I147
aI61
aI569
aa(lp2205
I298
aI467
aI173
aI289
aI355
aI62
aaa(lp2206
(lp2207
I569
aI61
aI147
aa(lp2208
I484
aI375
aI11
aI467
aI126
aI543
aI467
aI259
aI175
aaa(lp2209
(lp2210
I569
aI482
aI147
aa(lp2211
I298
aI467
aI173
aI289
aI355
aI62
aaa(lp2212
(lp2213
I147
aI482
aI569
aa(lp2214
I484
aI569
aI11
aI467
aI126
aI543
aI467
aI355
aI175
aaa(lp2215
(lp2216
I594
aI526
aI247
aa(lp2217
I341
aI343
aI83
aI467
aI126
aI543
aI467
aI355
aI175
aaa(lp2218
(lp2219
I594
aI526
aI343
aa(lp2220
I484
aI250
aI11
aI467
aI126
aI543
aI467
aI173
aI175
aaa(lp2221
(lp2222
I269
aI526
aI343
aa(lp2223
I0
aI0
aI11
aI0
aI67
aaa(lp2224
(lp2225
I269
aI526
aI343
aa(lp2226
I484
aI269
aI11
aI467
aI126
aI543
aI467
aI173
aI175
aaa(lp2227
(lp2228
I16
aI526
aI343
aa(lp2229
I484
aI110
aI11
aI467
aI196
aI543
aI467
aI173
aI175
aaa(lp2230
(lp2231
I180
aI526
aI343
aa(lp2232
I484
aI447
aI11
aI467
aI126
aI543
aI467
aI355
aI175
aaa(lp2233
(lp2234
I180
aI526
aI338
aa(lp2235
I341
aI343
aI83
aI467
aI196
aI543
aI467
aI355
aI175
aaa(lp2236
(lp2237
I180
aI526
aI447
aa(lp2238
I298
aI467
aI173
aI289
aI355
aI62
aaa(lp2239
(lp2240
I447
aI526
aI180
aa(lp2241
I341
aI37
aI83
aI467
aI126
aI543
aI467
aI355
aI175
aaa(lp2242
(lp2243
I594
aI526
aI462
aa(lp2244
I538
aI147
aI466
aI83
aI175
aI355
aaa(lp2245
(lp2246
I594
aI526
aI466
aa(lp2247
I278
aI175
aI259
aaa(lp2248
(lp2249
I594
aI587
aI466
aa(lp2250
I538
aI147
aI273
aI83
aI175
aI259
aaa(lp2251
(lp2252
I594
aI396
aI466
aa(lp2253
I13
aI62
aI173
aI289
aI355
aaa(lp2254
(lp2255
I466
aI396
aI594
aa(lp2256
I0
aI0
aI467
aI442
aaa(lp2257
(lp2258
I466
aI396
aI594
aa(lp2259
I484
aI447
aI11
aI467
aI126
aI543
aI175
aI259
aaa(lp2260
(lp2261
I466
aI433
aI594
aa(lp2262
I13
aI62
aI173
aI289
aI355
aaa(lp2263
(lp2264
I594
aI433
aI466
aa(lp2265
I538
aI600
aI147
aI83
aI175
aI173
aaa(lp2266
(lp2267
I147
aI433
aI466
aa(lp2268
I484
aI613
aI11
aI467
aI126
aI543
aI175
aI355
aaa(lp2269
(lp2270
I594
aI526
aI462
aa(lp2271
I484
aI466
aI11
aI467
aI126
aI543
aI467
aI355
aI175
aaa(lp2272
(lp2273
I594
aI526
aI466
aa(lp2274
I484
aI526
aI11
aI467
aI126
aI543
aI467
aI259
aI175
aaa(lp2275
(lp2276
I594
aI587
aI466
aa(lp2277
I341
aI467
aI273
aI83
aI467
aI259
aI175
aaa(lp2278
(lp2279
I594
aI396
aI466
aa(lp2280
I298
aI467
aI173
aI289
aI355
aI62
aaa(lp2281
(lp2282
I466
aI396
aI594
aa(lp2283
I0
aI0
aaa(lp2284
(lp2285
I466
aI396
aI594
aa(lp2286
I484
aI447
aI11
aI467
aI126
aI543
aI467
aI259
aI175
aaa(lp2287
(lp2288
I466
aI433
aI594
aa(lp2289
I298
aI467
aI173
aI289
aI355
aI175
aaa(lp2290
(lp2291
I594
aI433
aI466
aa(lp2292
I341
aI467
aI147
aI83
aI467
aI173
aI175
aaa(lp2293
(lp2294
I147
aI433
aI466
aa(lp2295
I484
aI613
aI11
aI467
aI126
aI543
aI467
aI355
aI175
aaa(lp2296
(lp2297
I594
aI526
aI46
aa(lp2298
I0
aI0
aI467
aI442
aaa(lp2299
(lp2300
I594
aI526
aI46
aa(lp2301
I13
aI62
aI173
aI289
aI259
aaa(lp2302
(lp2303
I526
aI594
aI46
aa(lp2304
I593
aI147
aI273
aI83
aI175
aI173
aaa(lp2305
(lp2306
I273
aI594
aI46
aa(lp2307
I278
aI175
aI355
aaa(lp2308
(lp2309
I273
aI594
aI130
aa(lp2310
I0
aI0
aI467
aI442
aaa(lp2311
(lp2312
I273
aI594
aI130
aa(lp2313
I0
aI0
aI467
aI442
aaa(lp2314
(lp2315
I273
aI594
aI130
aa(lp2316
I593
aI175
aI173
aaa(lp2317
(lp2318
I594
aI130
aa(lp2319
I593
aI600
aI147
aI83
aI175
aI173
aaa(lp2320
(lp2321
I147
aI130
aa(lp2322
I0
aI0
aI467
aI442
aaa(lp2323
(lp2324
I594
aI383
aI333
aa(lp2325
I298
aI467
aI173
aI289
aI355
aI62
aaa(lp2326
(lp2327
I333
aI383
aI594
aa(lp2328
I341
aI147
aI83
aI467
aI126
aI543
aI467
aI355
aI175
aaa(lp2329
(lp2330
I333
aI383
aI147
aa(lp2331
I298
aI467
aI173
aI289
aI355
aI175
aaa(lp2332
(lp2333
I147
aI383
aI333
aa(lp2334
I484
aI333
aI11
aI467
aI126
aI543
aI467
aI355
aI175
aaa(lp2335
(lp2336
I147
aI383
aI268
aa(lp2337
I484
aI381
aI11
aI467
aI230
aI543
aI467
aI355
aI175
aaa(lp2338
(lp2339
I147
aI383
aI243
aa(lp2340
I0
aI0
aaa(lp2341
(lp2342
I147
aI383
aI243
aa(lp2343
I341
aI467
aI173
aI175
aaa(lp2344
(lp2345
I383
aI243
aa(lp2346
I0
aI0
aaa(lp2347
(lp2348
I383
aI243
aa(lp2349
I298
aI467
aI259
aI289
aI355
aI62
aaa(lp2350
(lp2351
I594
aI383
aI202
aa(lp2352
I0
aI467
aI0
aI0
aI0
aaa(lp2353
(lp2354
I594
aI383
aI202
aa(lp2355
I278
aI467
aI355
aI175
aaa(lp2356
(lp2357
I594
aI383
aI21
aa(lp2358
I593
aI467
aI173
aI305
aI543
aI467
aI173
aI175
aaa(lp2359
(lp2360
I147
aI383
aI21
aa(lp2361
I225
aI0
aI67
aaa(lp2362
(lp2363
I594
aI383
aI21
aa(lp2364
I0
aI467
aI0
aI0
aaa(lp2365
(lp2366
I594
aI383
aI21
aa(lp2367
I278
aI467
aI259
aI175
aaa(lp2368
(lp2369
I594
aI310
aI21
aa(lp2370
I13
aI467
aI173
aI259
aI62
aaa(lp2371
(lp2372
I310
aI594
aI21
aa(lp2373
I593
aI467
aI173
aI305
aI543
aI467
aI259
aI175
aaa(lp2374
(lp2375
I310
aI147
aI21
aa(lp2376
I278
aI467
aI355
aI175
aaa(lp2377
(lp2378
I594
aI383
aI202
aa(lp2379
I113
aI0
aaa(lp2380
(lp2381
I594
aI383
aI202
aa(lp2382
I278
aI175
aI355
aaa(lp2383
(lp2384
I594
aI383
aI21
aa(lp2385
I341
aI147
aaa(lp2386
(lp2387
I147
aI383
aI21
aa(lp2388
I225
aaa(lp2389
(lp2390
I594
aI383
aI21
aa(lp2391
I113
aI0
aaa(lp2392
(lp2393
I594
aI383
aI21
aa(lp2394
I278
aI175
aI259
aaa(lp2395
(lp2396
I594
aI310
aI21
aa(lp2397
I298
aI173
aI289
aI259
aaa(lp2398
(lp2399
I310
aI594
aI21
aa(lp2400
I341
aI147
aaa(lp2401
(lp2402
I310
aI147
aI21
aa(lp2403
I278
aI355
aaa(lp2404
(lp2405
I594
aI383
aI202
aa(lp2406
I113
aI0
aaa(lp2407
(lp2408
I594
aI383
aI202
aa(lp2409
I88
aI467
aI355
aI175
aaa(lp2410
(lp2411
I594
aI383
aI21
aa(lp2412
I341
aI600
aI147
aI83
aI467
aI173
aI175
aaa(lp2413
(lp2414
I147
aI383
aI21
aa(lp2415
I484
aI600
aI147
aI11
aI467
aI173
aI175
aaa(lp2416
(lp2417
I594
aI383
aI21
aa(lp2418
I113
aI0
aaa(lp2419
(lp2420
I594
aI383
aI21
aa(lp2421
I88
aI467
aI259
aI175
aaa(lp2422
(lp2423
I594
aI310
aI21
aa(lp2424
I13
aI467
aI173
aI289
aI259
aI62
aaa(lp2425
(lp2426
I310
aI594
aI21
aa(lp2427
I341
aI600
aI147
aI83
aI467
aI259
aI175
aaa(lp2428
(lp2429
I310
aI147
aI21
aa(lp2430
I88
aI467
aI355
aI175
aaa(lp2431
(lp2432
I594
aI383
aI143
aa(lp2433
I484
aI143
aI11
aI467
aI355
aI175
aaa(lp2434
(lp2435
I594
aI383
aI52
aa(lp2436
I341
aI173
aI366
aI83
aI467
aI259
aI175
aaa(lp2437
(lp2438
I594
aI366
aI52
aa(lp2439
I484
aI12
aI11
aI467
aI173
aI175
aaa(lp2440
(lp2441
I220
aI366
aI52
aa(lp2442
I484
aI187
aI11
aI467
aI355
aI175
aaa(lp2443
(lp2444
I220
aI366
aI585
aa(lp2445
I341
aI198
aI83
aI467
aI173
aI175
aaa(lp2446
(lp2447
I283
aI366
aI585
aa(lp2448
I484
aI445
aI11
aI467
aI355
aI175
aaa(lp2449
(lp2450
I283
aI366
aI370
aa(lp2451
I113
aI0
aaa(lp2452
(lp2453
I283
aI366
aI370
aa(lp2454
I484
aI104
aI11
aI467
aI259
aI175
aaa(lp2455
(lp2456
I283
aI30
aI370
aa(lp2457
I113
aI467
aI442
aI515
aI467
aI355
aI175
aaa(lp2458
(lp2459
I594
aI383
aI143
aa(lp2460
I278
aI175
aI355
aaa(lp2461
(lp2462
I594
aI383
aI52
aa(lp2463
I341
aI366
aaa(lp2464
(lp2465
I594
aI366
aI52
aa(lp2466
I484
aI12
aI11
aI467
aI126
aI543
aI175
aI173
aaa(lp2467
(lp2468
I220
aI366
aI52
aa(lp2469
I484
aI187
aI11
aI467
aI196
aI543
aI355
aaa(lp2470
(lp2471
I220
aI366
aI585
aa(lp2472
I341
aI198
aaa(lp2473
(lp2474
I283
aI366
aI585
aa(lp2475
I484
aI445
aI11
aI467
aI196
aI543
aI355
aaa(lp2476
(lp2477
I283
aI366
aI370
aa(lp2478
I113
aI0
aaa(lp2479
(lp2480
I283
aI366
aI370
aa(lp2481
I484
aI104
aI11
aI467
aI126
aI543
aI259
aaa(lp2482
(lp2483
I283
aI30
aI370
aa(lp2484
I113
aI467
aI442
aI11
aI355
aaa(lp2485
(lp2486
I594
aI383
aI2
aa(lp2487
I0
aI0
aI467
aI442
aaa(lp2488
(lp2489
I594
aI383
aI2
aa(lp2490
I538
aI600
aI147
aI83
aI175
aI173
aaa(lp2491
(lp2492
I147
aI383
aI2
aa(lp2493
I0
aI0
aI467
aI442
aaa(lp2494
(lp2495
I147
aI383
aI2
aa(lp2496
I484
aI493
aI11
aI467
aI126
aI543
aI175
aI355
aaa(lp2497
(lp2498
I147
aI383
aI472
aa(lp2499
I0
aI0
aI467
aI442
aaa(lp2500
(lp2501
I147
aI383
aI472
aa(lp2502
I484
aI228
aI11
aI467
aI230
aI543
aI175
aI259
aaa(lp2503
(lp2504
I147
aI522
aI472
aa(lp2505
I484
aI493
aI11
aI467
aI126
aI543
aI175
aI259
aaa(lp2506
(lp2507
I147
aI129
aI472
aa(lp2508
I13
aI62
aI259
aI289
aI355
aaa(lp2509
(lp2510
I147
aI472
aI129
aa(lp2511
I413
aI467
aI158
aI543
aI175
aI259
aaa(lp2512
(lp2513
I594
aI383
aI574
aa(lp2514
I13
aI467
aI173
aI289
aI355
aI175
aaa(lp2515
(lp2516
I574
aI383
aI594
aa(lp2517
I484
aI383
aI11
aI467
aI259
aI175
aaa(lp2518
(lp2519
I574
aI310
aI594
aa(lp2520
I484
aI272
aI11
aI467
aI230
aI543
aI467
aI259
aI175
aaa(lp2521
(lp2522
I574
aI389
aI594
aa(lp2523
I484
aI574
aI11
aI467
aI173
aI175
aaa(lp2524
(lp2525
I209
aI389
aI594
aa(lp2526
I341
aI273
aI83
aI467
aI259
aI175
aaa(lp2527
(lp2528
I209
aI478
aI594
aa(lp2529
I341
aI622
aI83
aI467
aI259
aI175
aaa(lp2530
(lp2531
I209
aI271
aI594
aa(lp2532
I484
aI271
aI11
aI467
aI259
aI175
aaa(lp2533
(lp2534
I209
aI532
aI594
aa(lp2535
I13
aI467
aI259
aI289
aI355
aI62
aaa(lp2536
(lp2537
I209
aI594
aI532
aa(lp2538
I413
aI467
aI158
aI543
aI467
aI355
aI175
aaa(lp2539
(lp2540
I594
aI526
aI383
aa(lp2541
I88
aI173
aI175
aaa(lp2542
(lp2543
I116
aI526
aI383
aa(lp2544
I88
aI355
aI175
aaa(lp2545
(lp2546
I116
aI526
aI310
aa(lp2547
I484
aI152
aI11
aI467
aI355
aI175
aaa(lp2548
(lp2549
I116
aI526
aI32
aa(lp2550
I484
aI146
aI11
aI467
aI259
aI175
aaa(lp2551
(lp2552
I116
aI261
aI32
aa(lp2553
I13
aI467
aI173
aI289
aI355
aI62
aaa(lp2554
(lp2555
I32
aI261
aI116
aa(lp2556
I225
aI467
aI355
aI609
aaa(lp2557
(lp2558
I116
aI261
aI32
aa(lp2559
I76
aI467
aI355
aI609
aaa(lp2560
(lp2561
I32
aI261
aI116
aa(lp2562
I341
aI173
aI147
aI83
aI467
aI355
aI175
aaa(lp2563
(lp2564
I32
aI261
aI274
aa(lp2565
I484
aI146
aI11
aI467
aI355
aI175
aaa(lp2566
(lp2567
I594
aI526
aI104
aa(lp2568
I0
aI467
aI0
aI0
aaa(lp2569
(lp2570
I594
aI526
aI104
aa(lp2571
I278
aI467
aI355
aI175
aaa(lp2572
(lp2573
I594
aI526
aI267
aa(lp2574
I278
aI467
aI173
aI175
aaa(lp2575
(lp2576
I116
aI526
aI267
aa(lp2577
I593
aI467
aI355
aI305
aaa(lp2578
(lp2579
I116
aI526
aI226
aa(lp2580
I13
aI467
aI355
aI259
aI62
aaa(lp2581
(lp2582
I116
aI226
aI526
aa(lp2583
I0
aI467
aI0
aI0
aaa(lp2584
(lp2585
I116
aI226
aI526
aa(lp2586
I484
aI174
aI11
aI467
aI126
aI543
aI467
aI259
aI175
aaa(lp2587
(lp2588
I116
aI165
aI526
aa(lp2589
I278
aI467
aI355
aI175
aaa(lp2590
(lp2591
I116
aI165
aI587
aa(lp2592
I593
aI467
aI355
aI305
aaa(lp2593
(lp2594
I594
aI383
aI574
aa(lp2595
I298
aI62
aI173
aI289
aI355
aaa(lp2596
(lp2597
I574
aI383
aI594
aa(lp2598
I484
aI383
aI11
aI175
aI259
aaa(lp2599
(lp2600
I574
aI310
aI594
aa(lp2601
I484
aI272
aI11
aI467
aI196
aI543
aI175
aI259
aaa(lp2602
(lp2603
I574
aI389
aI594
aa(lp2604
I484
aI574
aI11
aI175
aI173
aaa(lp2605
(lp2606
I209
aI389
aI594
aa(lp2607
I341
aI273
aaa(lp2608
(lp2609
I209
aI478
aI594
aa(lp2610
I341
aI622
aaa(lp2611
(lp2612
I209
aI271
aI594
aa(lp2613
I484
aI271
aI11
aI175
aI259
aaa(lp2614
(lp2615
I209
aI532
aI594
aa(lp2616
I298
aI62
aI259
aI289
aI355
aaa(lp2617
(lp2618
I209
aI594
aI532
aa(lp2619
I413
aI175
aI355
aaa(lp2620
(lp2621
I594
aI526
aI202
aa(lp2622
I13
aI467
aI355
aI259
aI62
aaa(lp2623
(lp2624
I594
aI202
aI526
aa(lp2625
I13
aI467
aI173
aI289
aI355
aI175
aaa(lp2626
(lp2627
I526
aI202
aI594
aa(lp2628
I13
aI467
aI173
aI259
aI62
aaa(lp2629
(lp2630
I202
aI526
aI594
aa(lp2631
I484
aI174
aI11
aI467
aI126
aI543
aI467
aI355
aI175
aaa(lp2632
(lp2633
I202
aI526
aI353
aa(lp2634
I484
aI239
aI11
aI467
aI126
aI543
aI467
aI259
aI175
aaa(lp2635
(lp2636
I202
aI402
aI353
aa(lp2637
I162
aI594
aI11
aI467
aI126
aI543
aI467
aI355
aI175
aaa(lp2638
(lp2639
I202
aI402
aI490
aa(lp2640
I162
aI239
aI11
aI467
aI230
aI543
aI467
aI259
aI175
aaa(lp2641
(lp2642
I202
aI504
aI490
aa(lp2643
I162
aI594
aI11
aI467
aI230
aI543
aI467
aI355
aI175
aaa(lp2644
(lp2645
I202
aI504
aI353
aa(lp2646
I13
aI467
aI355
aI259
aI62
aaa(lp2647
(lp2648
I594
aI526
aI202
aa(lp2649
I298
aI467
aI259
aI289
aI355
aI62
aaa(lp2650
(lp2651
I594
aI202
aI526
aa(lp2652
I298
aI467
aI173
aI289
aI355
aI62
aaa(lp2653
(lp2654
I526
aI202
aI594
aa(lp2655
I298
aI467
aI173
aI289
aI259
aI62
aaa(lp2656
(lp2657
I202
aI526
aI594
aa(lp2658
I484
aI174
aI11
aI467
aI126
aI543
aI467
aI355
aI175
aaa(lp2659
(lp2660
I202
aI526
aI353
aa(lp2661
I484
aI239
aI11
aI467
aI126
aI543
aI467
aI259
aI175
aaa(lp2662
(lp2663
I202
aI402
aI353
aa(lp2664
I413
aI467
aI158
aI543
aI467
aI554
aI435
aI467
aI355
aI175
aaa(lp2665
(lp2666
I202
aI402
aI490
aa(lp2667
I413
aI467
aI158
aI543
aI467
aI554
aI435
aI467
aI259
aI175
aaa(lp2668
(lp2669
I202
aI504
aI490
aa(lp2670
I413
aI467
aI158
aI543
aI467
aI554
aI435
aI467
aI355
aI175
aaa(lp2671
(lp2672
I202
aI504
aI353
aa(lp2673
I298
aI467
aI259
aI289
aI355
aI62
aaa(lp2674
(lp2675
I594
aI383
aI99
aa(lp2676
I0
aI467
aI0
aI0
aaa(lp2677
(lp2678
I594
aI383
aI99
aa(lp2679
I484
aI0
aI11
aI467
aI230
aI543
aI467
aI173
aI175
aaa(lp2680
(lp2681
I399
aI383
aI99
aa(lp2682
I0
aI0
aaa(lp2683
(lp2684
I399
aI383
aI99
aa(lp2685
I467
aI0
aI0
aI0
aaa(lp2686
(lp2687
I399
aI383
aI99
aa(lp2688
I13
aI467
aI173
aI289
aI355
aI62
aaa(lp2689
(lp2690
I99
aI383
aI399
aa(lp2691
I13
aI467
aI173
aI259
aI62
aaa(lp2692
(lp2693
I383
aI99
aI399
aa(lp2694
I13
aI467
aI355
aI259
aI62
aaa(lp2695
(lp2696
I383
aI399
aI99
aa(lp2697
I13
aI467
aI173
aI289
aI355
aI62
aaa(lp2698
(lp2699
I99
aI399
aI383
aa(lp2700
I0
aI467
aI62
aI0
aaa(lp2701
(lp2702
I594
aI383
aI99
aa(lp2703
I0
aI0
aaa(lp2704
(lp2705
I594
aI383
aI99
aa(lp2706
I484
aI0
aI11
aI467
aI230
aI543
aI467
aI173
aI175
aaa(lp2707
(lp2708
I399
aI383
aI99
aa(lp2709
I0
aI0
aaa(lp2710
(lp2711
I399
aI383
aI99
aa(lp2712
I0
aI0
aaa(lp2713
(lp2714
I399
aI383
aI99
aa(lp2715
I298
aI467
aI173
aI289
aI355
aI62
aaa(lp2716
(lp2717
I99
aI383
aI399
aa(lp2718
I298
aI467
aI173
aI289
aI259
aI62
aaa(lp2719
(lp2720
I383
aI99
aI399
aa(lp2721
I298
aI467
aI259
aI289
aI355
aI62
aaa(lp2722
(lp2723
I383
aI399
aI99
aa(lp2724
I298
aI467
aI173
aI289
aI355
aI62
aaa(lp2725
(lp2726
I99
aI399
aI383
aa(lp2727
I0
aI0
aaa(lp2728
(lp2729
I594
aI383
aI363
aa(lp2730
I298
aI467
aI173
aI289
aI259
aI62
aaa(lp2731
(lp2732
I383
aI594
aI363
aa(lp2733
I484
aI147
aI355
aI147
aI11
aI467
aI259
aI175
aaa(lp2734
(lp2735
I383
aI116
aI363
aa(lp2736
I298
aI467
aI259
aI289
aI355
aI175
aaa(lp2737
(lp2738
I383
aI363
aI116
aa(lp2739
I484
aI383
aI11
aI467
aI173
aI175
aaa(lp2740
(lp2741
I310
aI363
aI116
aa(lp2742
I484
aI163
aI11
aI467
aI230
aI543
aI467
aI355
aI175
aaa(lp2743
(lp2744
I310
aI363
aI170
aa(lp2745
I0
aI0
aI467
aI442
aaa(lp2746
(lp2747
I310
aI363
aI170
aa(lp2748
I515
aI467
aI355
aI0
aI413
aI467
aI305
aaa(lp2749
(lp2750
I310
aI363
aI233
aa(lp2751
I341
aI147
aI586
aI83
aI467
aI259
aI175
aaa(lp2752
(lp2753
I310
aI586
aI233
aa(lp2754
I0
aI0
aI467
aI442
aaa(lp2755
(lp2756
I594
aI383
aI104
aa(lp2757
I278
aI175
aI355
aaa(lp2758
(lp2759
I594
aI383
aI267
aa(lp2760
I341
aI147
aaa(lp2761
(lp2762
I147
aI383
aI267
aa(lp2763
I514
aaa(lp2764
(lp2765
I383
aI267
aa(lp2766
I484
aI110
aI11
aI175
aI173
aaa(lp2767
(lp2768
I110
aI383
aI267
aa(lp2769
I298
aI259
aI289
aI355
aaa(lp2770
(lp2771
I110
aI267
aI383
aa(lp2772
I113
aI0
aaa(lp2773
(lp2774
I110
aI267
aI383
aa(lp2775
I278
aI175
aI355
aaa(lp2776
(lp2777
I110
aI267
aI310
aa(lp2778
I278
aI259
aaa(lp2779
(lp2780
I110
aI82
aI310
aa(lp2781
I278
aI355
aaa(lp2782
(lp2783
I594
aI383
aI104
aa(lp2784
I278
aI175
aI355
aaa(lp2785
(lp2786
I594
aI383
aI267
aa(lp2787
I538
aI600
aI147
aI83
aI175
aI173
aaa(lp2788
(lp2789
I147
aI383
aI267
aa(lp2790
I593
aI175
aI173
aaa(lp2791
(lp2792
I383
aI267
aa(lp2793
I484
aI147
aI0
aI0
aI0
aI147
aI0
aI305
aI110
aaa(lp2794
(lp2795
I110
aI383
aI267
aa(lp2796
I13
aI62
aI259
aI289
aI355
aaa(lp2797
(lp2798
I110
aI267
aI383
aa(lp2799
I0
aI0
aI467
aI442
aaa(lp2800
(lp2801
I110
aI267
aI383
aa(lp2802
I278
aI175
aI355
aaa(lp2803
(lp2804
I110
aI267
aI310
aa(lp2805
I484
aI104
aI11
aI175
aI259
aaa(lp2806
(lp2807
I110
aI82
aI310
aa(lp2808
I278
aI175
aI355
aaa(lp2809
(lp2810
I594
aI383
aI612
aa(lp2811
I13
aI62
aI259
aI289
aI355
aaa(lp2812
(lp2813
I594
aI612
aI383
aa(lp2814
I0
aI0
aI467
aI442
aaa(lp2815
(lp2816
I594
aI612
aI383
aa(lp2817
I13
aI62
aI173
aI289
aI355
aaa(lp2818
(lp2819
I383
aI612
aI594
aa(lp2820
I538
aI600
aI147
aI83
aI175
aI355
aaa(lp2821
(lp2822
I383
aI612
aI147
aa(lp2823
I484
aI176
aI11
aI467
aI126
aI543
aI175
aI259
aaa(lp2824
(lp2825
I383
aI542
aI147
aa(lp2826
I413
aI467
aI158
aI543
aI175
aI259
aaa(lp2827
(lp2828
I383
aI357
aI147
aa(lp2829
I278
aI175
aI259
aaa(lp2830
(lp2831
I383
aI619
aI147
aa(lp2832
I413
aI467
aI158
aI543
aI175
aI259
aaa(lp2833
(lp2834
I383
aI424
aI147
aa(lp2835
I13
aI62
aI259
aI289
aI355
aaa(lp2836
(lp2837
I594
aI526
aI104
aa(lp2838
I0
aI0
aI11
aI0
aI67
aaa(lp2839
(lp2840
I594
aI526
aI104
aa(lp2841
I484
aI104
aI11
aI467
aI126
aI543
aI467
aI355
aI175
aaa(lp2842
(lp2843
I594
aI526
aI267
aa(lp2844
I484
aI594
aI11
aI467
aI126
aI543
aI467
aI173
aI175
aaa(lp2845
(lp2846
I116
aI526
aI267
aa(lp2847
I341
aI597
aI83
aI467
aI126
aI543
aI467
aI355
aI175
aaa(lp2848
(lp2849
I116
aI526
aI226
aa(lp2850
I298
aI467
aI259
aI289
aI355
aI62
aaa(lp2851
(lp2852
I116
aI226
aI526
aa(lp2853
I0
aI0
aI11
aI0
aI67
aaa(lp2854
(lp2855
I116
aI226
aI526
aa(lp2856
I484
aI174
aI11
aI467
aI126
aI543
aI467
aI259
aI175
aaa(lp2857
(lp2858
I116
aI165
aI526
aa(lp2859
I484
aI526
aI11
aI467
aI126
aI543
aI467
aI355
aI175
aaa(lp2860
(lp2861
I116
aI165
aI587
aa(lp2862
I341
aI273
aI83
aI467
aI126
aI543
aI467
aI355
aI175
aaa(lp2863
(lp2864
I594
aI383
aI612
aa(lp2865
I298
aI467
aI259
aI289
aI355
aI62
aaa(lp2866
(lp2867
I594
aI612
aI383
aa(lp2868
I0
aI0
aaa(lp2869
(lp2870
I594
aI612
aI383
aa(lp2871
I298
aI467
aI173
aI289
aI355
aI62
aaa(lp2872
(lp2873
I383
aI612
aI594
aa(lp2874
I341
aI147
aI83
aI467
aI126
aI543
aI467
aI355
aI175
aaa(lp2875
(lp2876
I383
aI612
aI147
aa(lp2877
I484
aI176
aI11
aI467
aI126
aI543
aI467
aI259
aI175
aaa(lp2878
(lp2879
I383
aI542
aI147
aa(lp2880
I413
aI467
aI259
aI175
aaa(lp2881
(lp2882
I383
aI357
aI147
aa(lp2883
I484
aI357
aI11
aI467
aI126
aI543
aI467
aI259
aI175
aaa(lp2884
(lp2885
I383
aI619
aI147
aa(lp2886
I413
aI467
aI259
aI175
aaa(lp2887
(lp2888
I383
aI424
aI147
aa(lp2889
I413
aI467
aI259
aI289
aI355
aI175
aaa(lp2890
(lp2891
I594
aI383
aI540
aa(lp2892
I113
aI0
aaa(lp2893
(lp2894
I594
aI383
aI540
aa(lp2895
I514
aI175
aI259
aaa(lp2896
(lp2897
I594
aI310
aI540
aa(lp2898
I484
aI17
aI11
aI467
aI565
aI543
aI259
aaa(lp2899
(lp2900
I594
aI0
aI540
aa(lp2901
I341
aI366
aaa(lp2902
(lp2903
I594
aI73
aI540
aa(lp2904
I514
aaa(lp2905
(lp2906
I594
aI450
aI540
aa(lp2907
I298
aI259
aI289
aI355
aaa(lp2908
(lp2909
I594
aI540
aI450
aa(lp2910
I484
aI250
aI11
aI467
aI126
aI543
aI355
aaa(lp2911
(lp2912
I594
aI540
aI97
aa(lp2913
I298
aI173
aI289
aI259
aaa(lp2914
(lp2915
I540
aI594
aI97
aa(lp2916
I484
aI359
aI11
aI467
aI126
aI543
aI355
aaa(lp2917
(lp2918
I594
aI383
aI540
aa(lp2919
I0
aI0
aI467
aI442
aaa(lp2920
(lp2921
I594
aI383
aI540
aa(lp2922
I278
aI175
aI259
aaa(lp2923
(lp2924
I594
aI310
aI540
aa(lp2925
I484
aI17
aI11
aI467
aI230
aI543
aI175
aI259
aaa(lp2926
(lp2927
I594
aI0
aI540
aa(lp2928
I538
aI147
aI366
aI83
aI467
aI126
aI543
aI175
aI259
aaa(lp2929
(lp2930
I594
aI73
aI540
aa(lp2931
I538
aI147
aI366
aI83
aI467
aI126
aI543
aI175
aI259
aaa(lp2932
(lp2933
I594
aI450
aI540
aa(lp2934
I13
aI62
aI259
aI289
aI355
aaa(lp2935
(lp2936
I594
aI540
aI450
aa(lp2937
I484
aI250
aI11
aI467
aI126
aI543
aI175
aI355
aaa(lp2938
(lp2939
I594
aI540
aI97
aa(lp2940
I13
aI62
aI173
aI289
aI259
aaa(lp2941
(lp2942
I540
aI594
aI97
aa(lp2943
I484
aI359
aI11
aI467
aI126
aI543
aI175
aI355
aaa(lp2944
(lp2945
I594
aI383
aI540
aa(lp2946
I0
aI0
aaa(lp2947
(lp2948
I594
aI383
aI540
aa(lp2949
I484
aI383
aI11
aI467
aI126
aI543
aI467
aI259
aI175
aaa(lp2950
(lp2951
I594
aI310
aI540
aa(lp2952
I484
aI17
aI11
aI467
aI230
aI543
aI467
aI259
aI175
aaa(lp2953
(lp2954
I594
aI0
aI540
aa(lp2955
I341
aI366
aI83
aI467
aI126
aI543
aI467
aI259
aI175
aaa(lp2956
(lp2957
I594
aI73
aI540
aa(lp2958
I341
aI366
aI83
aI467
aI126
aI543
aI467
aI259
aI175
aaa(lp2959
(lp2960
I594
aI450
aI540
aa(lp2961
I298
aI467
aI259
aI289
aI355
aI62
aaa(lp2962
(lp2963
I594
aI540
aI450
aa(lp2964
I484
aI250
aI11
aI467
aI126
aI543
aI467
aI355
aI175
aaa(lp2965
(lp2966
I594
aI540
aI97
aa(lp2967
I298
aI467
aI173
aI289
aI259
aI62
aaa(lp2968
(lp2969
I540
aI594
aI97
aa(lp2970
I484
aI359
aI11
aI467
aI126
aI543
aI467
aI355
aI175
aaa(lp2971
(lp2972
I594
aI383
aI531
aa(lp2973
I484
aI586
aI11
aI467
aI196
aI543
aI467
aI259
aI175
aaa(lp2974
(lp2975
I594
aI615
aI531
aa(lp2976
I484
aI356
aI11
aI467
aI196
aI543
aI467
aI355
aI175
aaa(lp2977
(lp2978
I594
aI615
aI379
aa(lp2979
I484
aI379
aI11
aI467
aI126
aI543
aI467
aI355
aI175
aaa(lp2980
(lp2981
I594
aI615
aI420
aa(lp2982
I484
aI615
aI11
aI467
aI126
aI543
aI467
aI259
aI175
aaa(lp2983
(lp2984
I594
aI149
aI420
aa(lp2985
I484
aI6
aI11
aI467
aI126
aI543
aI467
aI173
aI175
aaa(lp2986
(lp2987
I294
aI149
aI420
aa(lp2988
I298
aI467
aI173
aI289
aI355
aI62
aaa(lp2989
(lp2990
I420
aI149
aI294
aa(lp2991
I484
aI317
aI11
aI467
aI126
aI543
aI467
aI355
aI175
aaa(lp2992
(lp2993
I420
aI149
aI364
aa(lp2994
I413
aI467
aI158
aI543
aI467
aI554
aI435
aI467
aI173
aI175
aaa(lp2995
(lp2996
I0
aI149
aI364
aa(lp2997
I484
aI163
aI11
aI467
aI196
aI543
aI467
aI355
aI175
aaa(lp2998
(lp2999
I594
aI383
aI339
aa(lp3000
I278
aI175
aI259
aaa(lp3001
(lp3002
I594
aI310
aI339
aa(lp3003
I113
aI0
aaa(lp3004
(lp3005
I594
aI310
aI339
aa(lp3006
I278
aI175
aI259
aaa(lp3007
(lp3008
I594
aI309
aI339
aa(lp3009
I113
aI0
aaa(lp3010
(lp3011
I594
aI309
aI339
aa(lp3012
I341
aI153
aaa(lp3013
(lp3014
I594
aI309
aI153
aa(lp3015
I298
aI62
aI259
aI289
aI355
aaa(lp3016
(lp3017
I594
aI153
aI309
aa(lp3018
I278
aI175
aI173
aaa(lp3019
(lp3020
I116
aI153
aI309
aa(lp3021
I113
aI0
aaa(lp3022
(lp3023
I116
aI153
aI309
aa(lp3024
I278
aI175
aI173
aaa(lp3025
(lp3026
I594
aI383
aI339
aa(lp3027
I88
aI175
aI259
aaa(lp3028
(lp3029
I594
aI310
aI339
aa(lp3030
I113
aI0
aaa(lp3031
(lp3032
I594
aI310
aI339
aa(lp3033
I88
aI175
aI259
aaa(lp3034
(lp3035
I594
aI309
aI339
aa(lp3036
I113
aI0
aaa(lp3037
(lp3038
I594
aI309
aI339
aa(lp3039
I341
aI147
aI153
aI83
aI175
aI355
aaa(lp3040
(lp3041
I594
aI309
aI153
aa(lp3042
I13
aI175
aI259
aI289
aI355
aaa(lp3043
(lp3044
I594
aI153
aI309
aa(lp3045
I88
aI175
aI173
aaa(lp3046
(lp3047
I116
aI153
aI309
aa(lp3048
I113
aI0
aaa(lp3049
(lp3050
I116
aI153
aI309
aa(lp3051
I13
aI175
aI173
aI289
aI355
aaa(lp3052
(lp3053
I594
aI383
aI210
aa(lp3054
I13
aI467
aI355
aI259
aI62
aaa(lp3055
(lp3056
I594
aI210
aI383
aa(lp3057
I278
aI467
aI173
aI175
aaa(lp3058
(lp3059
I116
aI210
aI383
aa(lp3060
I0
aI467
aI0
aI0
aaa(lp3061
(lp3062
I116
aI210
aI383
aa(lp3063
I278
aI467
aI355
aI175
aaa(lp3064
(lp3065
I116
aI210
aI310
aa(lp3066
I278
aI467
aI259
aI175
aaa(lp3067
(lp3068
I116
aI395
aI310
aa(lp3069
I13
aI467
aI173
aI259
aI62
aaa(lp3070
(lp3071
I395
aI116
aI310
aa(lp3072
I0
aI467
aI0
aI0
aaa(lp3073
(lp3074
I395
aI116
aI310
aa(lp3075
I514
aI467
aI0
aI67
aaa(lp3076
(lp3077
I395
aI116
aI310
aa(lp3078
I484
aI613
aI11
aI467
aI126
aaa(lp3079
(lp3080
I594
aI383
aI210
aa(lp3081
I13
aI62
aI259
aI289
aI355
aaa(lp3082
(lp3083
I594
aI210
aI383
aa(lp3084
I278
aI175
aI173
aaa(lp3085
(lp3086
I116
aI210
aI383
aa(lp3087
I0
aI0
aI467
aI442
aaa(lp3088
(lp3089
I116
aI210
aI383
aa(lp3090
I278
aI175
aI485
aaa(lp3091
(lp3092
I116
aI210
aI310
aa(lp3093
I278
aI175
aI259
aaa(lp3094
(lp3095
I116
aI395
aI310
aa(lp3096
I13
aI62
aI173
aI289
aI259
aaa(lp3097
(lp3098
I395
aI116
aI310
aa(lp3099
I0
aI0
aI467
aI442
aaa(lp3100
(lp3101
I395
aI116
aI310
aa(lp3102
I0
aI0
aI467
aI442
aaa(lp3103
(lp3104
I395
aI116
aI310
aa(lp3105
I484
aI613
aI11
aI467
aI126
aI543
aI175
aI355
aaa(lp3106
(lp3107
I594
aI143
aI46
aa(lp3108
I484
aI143
aI11
aI467
aI259
aI175
aaa(lp3109
(lp3110
I594
aI52
aI46
aa(lp3111
I0
aI467
aI442
aaa(lp3112
(lp3113
I594
aI52
aI46
aa(lp3114
I593
aI147
aI83
aI173
aI175
aaa(lp3115
(lp3116
I147
aI52
aI46
aa(lp3117
I593
aI591
aI83
aI355
aI175
aaa(lp3118
(lp3119
I147
aI52
aI591
aa(lp3120
I484
aI52
aI11
aI467
aI259
aI175
aaa(lp3121
(lp3122
I147
aI436
aI591
aa(lp3123
I0
aI467
aI442
aaa(lp3124
(lp3125
I147
aI436
aI591
aa(lp3126
I0
aI467
aI442
aaa(lp3127
(lp3128
I147
aI436
aI591
aa(lp3129
I13
aI259
aI289
aI355
aI175
aaa(lp3130
(lp3131
I147
aI591
aI436
aa(lp3132
I238
aI467
aI173
aI175
aI137
aI467
aI355
aI175
aaa(lp3133
(lp3134
I594
aI526
aI143
aa(lp3135
I341
aI273
aI83
aI467
aI126
aI543
aI467
aI259
aI175
aaa(lp3136
(lp3137
I594
aI273
aI143
aa(lp3138
I0
aI0
aI11
aI0
aI67
aaa(lp3139
(lp3140
I594
aI273
aI143
aa(lp3141
I0
aI0
aI11
aI0
aI67
aaa(lp3142
(lp3143
I594
aI273
aI143
aa(lp3144
I484
aI466
aI11
aI467
aI126
aI543
aI467
aI355
aI175
aaa(lp3145
(lp3146
I594
aI273
aI161
aa(lp3147
I484
aI273
aI11
aI467
aI126
aI543
aI467
aI259
aI175
aaa(lp3148
(lp3149
I594
aI526
aI161
aa(lp3150
I484
aI526
aI11
aI467
aI126
aI543
aI467
aI259
aI175
aaa(lp3151
(lp3152
I594
aI587
aI161
aa(lp3153
I341
aI103
aI83
aI467
aI196
aI543
aI467
aI355
aI175
aaa(lp3154
(lp3155
I594
aI587
aI136
aa(lp3156
I484
aI587
aI11
aI467
aI126
aI543
aI467
aI259
aI175
aaa(lp3157
(lp3158
I594
aI77
aI136
aa(lp3159
I484
aI146
aI11
aI467
aI196
aI543
aI467
aI355
aI175
aaa(lp3160
(lp3161
I594
aI383
aI150
aa(lp3162
I341
aI375
aI83
aI467
aI126
aI543
aI467
aI355
aI175
aaa(lp3163
(lp3164
I594
aI383
aI375
aa(lp3165
I484
aI594
aI11
aI467
aI126
aI543
aI467
aI173
aI175
aaa(lp3166
(lp3167
I116
aI383
aI375
aa(lp3168
I484
aI375
aI11
aI467
aI126
aI543
aI467
aI355
aI175
aaa(lp3169
(lp3170
I116
aI383
aI150
aa(lp3171
I298
aI467
aI173
aI289
aI259
aI175
aaa(lp3172
(lp3173
I383
aI116
aI150
aa(lp3174
I484
aI383
aI11
aI467
aI126
aI543
aI467
aI173
aI175
aaa(lp3175
(lp3176
I310
aI116
aI150
aa(lp3177
I484
aI104
aI11
aI467
aI126
aI543
aI467
aI355
aI175
aaa(lp3178
(lp3179
I310
aI116
aI0
aa(lp3180
I484
aI333
aI11
aI467
aI126
aI543
aI467
aI355
aI175
aaa(lp3181
(lp3182
I310
aI116
aI0
aa(lp3183
I298
aI467
aI173
aI289
aI259
aI62
aaa(lp3184
(lp3185
I116
aI310
aI0
aa(lp3186
I484
aI381
aI11
aI467
aI230
aI543
aI467
aI259
aI175
aaa(lp3187
(lp3188
I594
aI383
aI8
aa(lp3189
I113
aI0
aaa(lp3190
(lp3191
I594
aI383
aI8
aa(lp3192
I113
aI0
aaa(lp3193
(lp3194
I594
aI383
aI8
aa(lp3195
I113
aI0
aaa(lp3196
(lp3197
I594
aI383
aI8
aa(lp3198
I484
aI437
aI11
aI467
aI196
aI543
aI175
aI173
aaa(lp3199
(lp3200
I417
aI383
aI8
aa(lp3201
I13
aI175
aI173
aI289
aI355
aaa(lp3202
(lp3203
I8
aI383
aI417
aa(lp3204
I341
aI147
aI505
aI83
aI175
aI173
aaa(lp3205
(lp3206
I505
aI383
aI417
aa(lp3207
I13
aI175
aI259
aI289
aI355
aaa(lp3208
(lp3209
I505
aI417
aI383
aa(lp3210
I484
aI493
aI11
aI467
aI126
aI543
aI175
aI355
aaa(lp3211
(lp3212
I505
aI417
aI0
aa(lp3213
I13
aI175
aI173
aI289
aI355
aaa(lp3214
(lp3215
I594
aI383
aI434
aa(lp3216
I484
aI383
aI11
aI467
aI126
aI543
aI467
aI259
aI175
aaa(lp3217
(lp3218
I594
aI310
aI434
aa(lp3219
I484
aI434
aI11
aI467
aI126
aI543
aI467
aI355
aI175
aaa(lp3220
(lp3221
I594
aI310
aI614
aa(lp3222
I298
aI467
aI173
aI289
aI355
aI62
aaa(lp3223
(lp3224
I614
aI310
aI594
aa(lp3225
I0
aI0
aI11
aI0
aI67
aaa(lp3226
(lp3227
I614
aI310
aI594
aa(lp3228
I298
aI467
aI173
aI289
aI355
aI62
aaa(lp3229
(lp3230
I594
aI310
aI614
aa(lp3231
I484
aI493
aI11
aI467
aI126
aI543
aI467
aI355
aI175
aaa(lp3232
(lp3233
I594
aI310
aI229
aa(lp3234
I298
aI467
aI173
aI289
aI355
aI62
aaa(lp3235
(lp3236
I229
aI310
aI594
aa(lp3237
I484
aI613
aI11
aI467
aI126
aI543
aI467
aI259
aI175
aaa(lp3238
(lp3239
I229
aI337
aI594
aa(lp3240
I413
aI467
aI158
aI543
aI467
aI554
aI435
aI467
aI173
aI175
aaa(lp3241
(lp3242
I594
aI383
aI434
aa(lp3243
I278
aI175
aI259
aaa(lp3244
(lp3245
I594
aI310
aI434
aa(lp3246
I278
aI175
aI355
aaa(lp3247
(lp3248
I594
aI310
aI614
aa(lp3249
I298
aI173
aI289
aI355
aaa(lp3250
(lp3251
I614
aI310
aI594
aa(lp3252
I113
aI0
aaa(lp3253
(lp3254
I614
aI310
aI594
aa(lp3255
I298
aI173
aI289
aI355
aaa(lp3256
(lp3257
I594
aI310
aI614
aa(lp3258
I484
aI493
aI11
aI467
aI126
aI543
aI355
aaa(lp3259
(lp3260
I594
aI310
aI229
aa(lp3261
I298
aI173
aI289
aI355
aaa(lp3262
(lp3263
I229
aI310
aI594
aa(lp3264
I484
aI613
aI11
aI467
aI126
aI543
aI259
aaa(lp3265
(lp3266
I229
aI337
aI594
aa(lp3267
I413
aI173
aaa(lp3268
(lp3269
I594
aI383
aI362
aa(lp3270
I278
aI175
aI259
aaa(lp3271
(lp3272
I594
aI310
aI362
aa(lp3273
I341
aI147
aaa(lp3274
(lp3275
I147
aI310
aI362
aa(lp3276
I341
aI239
aaa(lp3277
(lp3278
I147
aI310
aI239
aa(lp3279
I298
aI173
aI289
aI355
aaa(lp3280
(lp3281
I239
aI310
aI147
aa(lp3282
I341
aI239
aaa(lp3283
(lp3284
I310
aI147
aa(lp3285
I341
aI366
aaa(lp3286
(lp3287
I468
aI147
aa(lp3288
I113
aI0
aaa(lp3289
(lp3290
I468
aI147
aa(lp3291
I484
aI176
aI11
aI175
aI259
aaa(lp3292
(lp3293
I468
aI176
aI147
aa(lp3294
I278
aI175
aI259
aaa(lp3295
(lp3296
I594
aI383
aI362
aa(lp3297
I484
aI383
aI11
aI467
aI259
aI175
aaa(lp3298
(lp3299
I594
aI310
aI362
aa(lp3300
I341
aI147
aI83
aI467
aI173
aI175
aaa(lp3301
(lp3302
I147
aI310
aI362
aa(lp3303
I341
aI239
aI83
aI467
aI355
aI175
aaa(lp3304
(lp3305
I147
aI310
aI239
aa(lp3306
I298
aI467
aI173
aI289
aI355
aI175
aaa(lp3307
(lp3308
I239
aI310
aI147
aa(lp3309
I341
aI467
aI173
aI175
aaa(lp3310
(lp3311
I310
aI147
aa(lp3312
I341
aI366
aI83
aI467
aI173
aI175
aaa(lp3313
(lp3314
I468
aI147
aa(lp3315
I0
aI0
aaa(lp3316
(lp3317
I468
aI147
aa(lp3318
I484
aI176
aI603
aI467
aI259
aI175
aaa(lp3319
(lp3320
I468
aI176
aI147
aa(lp3321
I484
aI176
aI606
aI467
aI126
aI543
aI467
aI259
aI175
aaa(lp3322
(lp3323
I594
aI383
aI247
aa(lp3324
I484
aI383
aI11
aI467
aI126
aI543
aI467
aI259
aI175
aaa(lp3325
(lp3326
I594
aI310
aI247
aa(lp3327
I0
aI0
aI11
aI0
aI67
aaa(lp3328
(lp3329
I594
aI310
aI247
aa(lp3330
I0
aI0
aI11
aI0
aI67
aaa(lp3331
(lp3332
I594
aI310
aI247
aa(lp3333
I298
aI467
aI259
aI289
aI355
aI62
aaa(lp3334
(lp3335
I594
aI247
aI310
aa(lp3336
I484
aI594
aI11
aI467
aI126
aI543
aI467
aI173
aI175
aaa(lp3337
(lp3338
I116
aI247
aI310
aa(lp3339
I341
aI366
aI83
aI467
aI126
aI543
aI467
aI355
aI175
aaa(lp3340
(lp3341
I116
aI247
aI468
aa(lp3342
I484
aI468
aI11
aI467
aI126
aI543
aI467
aI355
aI175
aaa(lp3343
(lp3344
I116
aI247
aI304
aa(lp3345
I0
aI0
aI11
aI0
aI67
aaa(lp3346
(lp3347
I116
aI247
aI304
aa(lp3348
I0
aI0
aI11
aI0
aI67
aaa(lp3349
(lp3350
I594
aI383
aI247
aa(lp3351
I278
aI175
aI259
aaa(lp3352
(lp3353
I594
aI310
aI247
aa(lp3354
I0
aI0
aI467
aI442
aaa(lp3355
(lp3356
I594
aI310
aI247
aa(lp3357
I0
aI0
aI467
aI442
aaa(lp3358
(lp3359
I594
aI310
aI247
aa(lp3360
I13
aI62
aI259
aI289
aI355
aaa(lp3361
(lp3362
I594
aI247
aI310
aa(lp3363
I278
aI175
aI173
aaa(lp3364
(lp3365
I116
aI247
aI310
aa(lp3366
I538
aI147
aI366
aI83
aI175
aI355
aaa(lp3367
(lp3368
I116
aI247
aI468
aa(lp3369
I278
aI175
aI355
aaa(lp3370
(lp3371
I116
aI247
aI304
aa(lp3372
I0
aI0
aI467
aI442
aaa(lp3373
(lp3374
I116
aI247
aI304
aa(lp3375
I0
aI0
aI467
aI442
aaa(lp3376
(lp3377
I594
aI383
aI462
aa(lp3378
I298
aI467
aI173
aI289
aI259
aI175
aaa(lp3379
(lp3380
I383
aI594
aI462
aa(lp3381
I341
aI147
aI83
aI467
aI126
aI543
aI467
aI259
aI175
aaa(lp3382
(lp3383
I383
aI147
aI462
aa(lp3384
I0
aI0
aaa(lp3385
(lp3386
I383
aI147
aI462
aa(lp3387
I0
aI0
aaa(lp3388
(lp3389
I383
aI147
aI462
aa(lp3390
I0
aI0
aaa(lp3391
(lp3392
I383
aI147
aI462
aa(lp3393
I341
aI466
aI83
aI467
aI126
aI543
aI467
aI355
aI175
aaa(lp3394
(lp3395
I383
aI147
aI466
aa(lp3396
I0
aI0
aaa(lp3397
(lp3398
I383
aI147
aI466
aa(lp3399
I341
aI467
aI355
aI175
aaa(lp3400
(lp3401
I383
aI147
aa(lp3402
I298
aI467
aI173
aI289
aI259
aI62
aaa(lp3403
(lp3404
I594
aI383
aI46
aa(lp3405
I88
aI175
aI355
aaa(lp3406
(lp3407
I594
aI383
aI130
aa(lp3408
I113
aI0
aaa(lp3409
(lp3410
I594
aI383
aI130
aa(lp3411
I88
aI175
aI355
aaa(lp3412
(lp3413
I594
aI383
aI621
aa(lp3414
I341
aI600
aI147
aI83
aI175
aI173
aaa(lp3415
(lp3416
I147
aI383
aI621
aa(lp3417
I13
aI175
aI259
aI289
aI355
aaa(lp3418
(lp3419
I147
aI621
aI383
aa(lp3420
I88
aI175
aI355
aaa(lp3421
(lp3422
I147
aI621
aI310
aa(lp3423
I341
aI147
aI83
aI175
aI173
aaa(lp3424
(lp3425
I621
aI310
aa(lp3426
I341
aI147
aI591
aI83
aI175
aI259
aaa(lp3427
(lp3428
I0
aI310
aa(lp3429
I113
aI0
aaa(lp3430
(lp3431
I594
aI333
aI202
aa(lp3432
I13
aI62
aI173
aI289
aI259
aaa(lp3433
(lp3434
I333
aI594
aI202
aa(lp3435
I13
aI62
aI173
aI289
aI259
aaa(lp3436
(lp3437
I594
aI333
aI202
aa(lp3438
I0
aI0
aI467
aI442
aaa(lp3439
(lp3440
I594
aI333
aI202
aa(lp3441
I0
aI0
aI467
aI442
aaa(lp3442
(lp3443
I594
aI333
aI202
aa(lp3444
I484
aI524
aI11
aI467
aI126
aI543
aI175
aI173
aaa(lp3445
(lp3446
I266
aI333
aI202
aa(lp3447
I484
aI17
aI11
aI467
aI230
aI543
aI175
aI259
aaa(lp3448
(lp3449
I266
aI234
aI202
aa(lp3450
I278
aI175
aI259
aaa(lp3451
(lp3452
I266
aI164
aI202
aa(lp3453
I413
aI467
aI158
aI543
aI175
aI259
aaa(lp3454
(lp3455
I266
aI47
aI202
aa(lp3456
I0
aI0
aI467
aI442
aaa(lp3457
(lp3458
I594
aI333
aI202
aa(lp3459
I298
aI467
aI173
aI289
aI259
aI62
aaa(lp3460
(lp3461
I333
aI594
aI202
aa(lp3462
I298
aI467
aI173
aI289
aI259
aI62
aaa(lp3463
(lp3464
I594
aI333
aI202
aa(lp3465
I0
aI0
aaa(lp3466
(lp3467
I594
aI333
aI202
aa(lp3468
I0
aI0
aaa(lp3469
(lp3470
I594
aI333
aI202
aa(lp3471
I484
aI524
aI11
aI467
aI126
aI543
aI467
aI173
aI175
aaa(lp3472
(lp3473
I266
aI333
aI202
aa(lp3474
I484
aI17
aI11
aI467
aI230
aI543
aI467
aI259
aI175
aaa(lp3475
(lp3476
I266
aI234
aI202
aa(lp3477
I484
aI234
aI11
aI467
aI126
aI543
aI467
aI259
aI175
aaa(lp3478
(lp3479
I266
aI164
aI202
aa(lp3480
I413
aI467
aI259
aI175
aaa(lp3481
(lp3482
I266
aI47
aI202
aa(lp3483
I0
aI0
aaa(lp3484
(lp3485
I594
aI2
aI99
aa(lp3486
I484
aI600
aI375
aI11
aI467
aI230
aI543
aI175
aI259
aaa(lp3487
(lp3488
I594
aI80
aI99
aa(lp3489
I278
aI175
aI355
aaa(lp3490
(lp3491
I594
aI80
aI132
aa(lp3492
I278
aI175
aI173
aaa(lp3493
(lp3494
I116
aI80
aI132
aa(lp3495
I484
aI600
aI340
aI11
aI467
aI230
aI543
aI175
aI173
aaa(lp3496
(lp3497
I630
aI80
aI132
aa(lp3498
I13
aI62
aI259
aI289
aI355
aaa(lp3499
(lp3500
I630
aI132
aI80
aa(lp3501
I278
aI175
aI259
aaa(lp3502
(lp3503
I630
aI552
aI80
aa(lp3504
I413
aI467
aI158
aI543
aI175
aI355
aaa(lp3505
(lp3506
I630
aI552
aI0
aa(lp3507
I413
aI467
aI158
aI543
aI175
aI355
aaa(lp3508
(lp3509
I630
aI552
aI80
aa(lp3510
I278
aI175
aI355
aaa(lp3511
(lp3512
I594
aI333
aI143
aa(lp3513
I538
aI600
aI103
aI83
aI175
aI355
aaa(lp3514
(lp3515
I594
aI333
aI103
aa(lp3516
I13
aI62
aI173
aI289
aI259
aaa(lp3517
(lp3518
I333
aI594
aI103
aa(lp3519
I278
aI175
aI259
aaa(lp3520
(lp3521
I333
aI116
aI103
aa(lp3522
I278
aI175
aI259
aaa(lp3523
(lp3524
I333
aI28
aI103
aa(lp3525
I484
aI600
aI198
aI11
aI467
aI230
aI543
aI175
aI259
aaa(lp3526
(lp3527
I333
aI561
aI103
aa(lp3528
I484
aI6
aI11
aI467
aI126
aI543
aI175
aI173
aaa(lp3529
(lp3530
I456
aI561
aI103
aa(lp3531
I593
aI175
aI355
aaa(lp3532
(lp3533
I456
aI561
aa(lp3534
I0
aI0
aI467
aI442
aaa(lp3535
(lp3536
I456
aI561
aa(lp3537
I0
aI0
aI467
aI442
aaa(lp3538
(lp3539
I594
aI333
aI2
aa(lp3540
I13
aI175
aI259
aI289
aI355
aaa(lp3541
(lp3542
I594
aI2
aI333
aa(lp3543
I13
aI175
aI173
aI289
aI355
aaa(lp3544
(lp3545
I333
aI2
aI594
aa(lp3546
I341
aI147
aI499
aI83
aI175
aI173
aaa(lp3547
(lp3548
I499
aI2
aI594
aa(lp3549
I113
aI0
aaa(lp3550
(lp3551
I499
aI2
aI594
aa(lp3552
I514
aI175
aI355
aaa(lp3553
(lp3554
I499
aI2
aI116
aa(lp3555
I341
aI147
aI232
aI83
aI175
aI259
aaa(lp3556
(lp3557
I499
aI232
aI116
aa(lp3558
I484
aI147
aI239
aI11
aI467
aI126
aI543
aI175
aI355
aaa(lp3559
(lp3560
I499
aI232
aI139
aa(lp3561
I413
aI175
aI355
aaa(lp3562
(lp3563
I499
aI232
aI388
aa(lp3564
I341
aI239
aI83
aI175
aI355
aaa(lp3565
(lp3566
I594
aI333
aI2
aa(lp3567
I298
aI467
aI259
aI289
aI355
aI62
aaa(lp3568
(lp3569
I594
aI2
aI333
aa(lp3570
I298
aI467
aI173
aI289
aI355
aI62
aaa(lp3571
(lp3572
I333
aI2
aI594
aa(lp3573
I341
aI499
aI83
aI467
aI230
aI543
aI467
aI173
aI175
aaa(lp3574
(lp3575
I499
aI2
aI594
aa(lp3576
I0
aI0
aaa(lp3577
(lp3578
I499
aI2
aI594
aa(lp3579
I484
aI594
aI11
aI467
aI126
aI543
aI467
aI355
aI175
aaa(lp3580
(lp3581
I499
aI2
aI116
aa(lp3582
I341
aI232
aI83
aI467
aI259
aI175
aaa(lp3583
(lp3584
I499
aI232
aI116
aa(lp3585
I484
aI239
aI11
aI467
aI126
aI543
aI467
aI355
aI175
aaa(lp3586
(lp3587
I499
aI232
aI139
aa(lp3588
I413
aI467
aI355
aI175
aaa(lp3589
(lp3590
I499
aI232
aI388
aa(lp3591
I341
aI239
aI83
aI467
aI230
aI543
aI467
aI355
aI175
aaa(lp3592
(lp3593
I594
aI333
aI574
aa(lp3594
I0
aI0
aaa(lp3595
(lp3596
I594
aI333
aI574
aa(lp3597
I484
aI65
aI11
aI467
aI126
aI543
aI467
aI173
aI175
aaa(lp3598
(lp3599
I282
aI333
aI574
aa(lp3600
I413
aI467
aI173
aI175
aaa(lp3601
(lp3602
I302
aI333
aI574
aa(lp3603
I341
aI499
aI83
aI467
aI126
aI543
aI467
aI259
aI175
aaa(lp3604
(lp3605
I302
aI499
aI574
aa(lp3606
I341
aI65
aI83
aI467
aI173
aI175
aaa(lp3607
(lp3608
I594
aI499
aI574
aa(lp3609
I298
aI467
aI173
aI289
aI355
aI62
aaa(lp3610
(lp3611
I574
aI499
aI594
aa(lp3612
I0
aI0
aaa(lp3613
(lp3614
I574
aI499
aI594
aa(lp3615
I484
aI375
aI11
aI467
aI230
aI543
aI467
aI355
aI175
aaa(lp3616
(lp3617
I574
aI499
aI293
aa(lp3618
I298
aI467
aI173
aI289
aI355
aI62
aaa(lp3619
(lp3620
I594
aI333
aI99
aa(lp3621
I113
aI0
aaa(lp3622
(lp3623
I594
aI333
aI99
aa(lp3624
I484
aI333
aI11
aI175
aI259
aaa(lp3625
(lp3626
I594
aI268
aI99
aa(lp3627
I341
aI600
aI147
aaa(lp3628
(lp3629
I147
aI268
aI99
aa(lp3630
I113
aI0
aaa(lp3631
(lp3632
I147
aI268
aI99
aa(lp3633
I484
aI627
aI11
aI175
aI173
aaa(lp3634
(lp3635
I423
aI268
aI99
aa(lp3636
I113
aI467
aI442
aI11
aI175
aI355
aaa(lp3637
(lp3638
I423
aI268
aI92
aa(lp3639
I298
aI62
aI259
aI289
aI355
aaa(lp3640
(lp3641
I423
aI92
aI268
aa(lp3642
I413
aI175
aI259
aaa(lp3643
(lp3644
I423
aI596
aI268
aa(lp3645
I484
aI333
aI11
aI175
aI355
aaa(lp3646
(lp3647
I594
aI333
aI99
aa(lp3648
I113
aI0
aaa(lp3649
(lp3650
I594
aI333
aI99
aa(lp3651
I514
aI175
aI259
aaa(lp3652
(lp3653
I594
aI268
aI99
aa(lp3654
I341
aI600
aI147
aI83
aI175
aI173
aaa(lp3655
(lp3656
I147
aI268
aI99
aa(lp3657
I113
aI0
aaa(lp3658
(lp3659
I147
aI268
aI99
aa(lp3660
I484
aI627
aI11
aI467
aI126
aI543
aI175
aI173
aaa(lp3661
(lp3662
I423
aI268
aI99
aa(lp3663
I484
aI627
aI11
aI467
aI126
aI543
aI175
aI355
aaa(lp3664
(lp3665
I423
aI268
aI92
aa(lp3666
I13
aI175
aI259
aI289
aI355
aaa(lp3667
(lp3668
I423
aI92
aI268
aa(lp3669
I413
aI175
aI259
aaa(lp3670
(lp3671
I423
aI596
aI268
aa(lp3672
I484
aI333
aI11
aI467
aI126
aI543
aI175
aI355
aaa(lp3673
(lp3674
I594
aI333
aI178
aa(lp3675
I538
aI147
aI499
aI83
aI467
aI259
aI175
aaa(lp3676
(lp3677
I594
aI499
aI178
aa(lp3678
I278
aI467
aI173
aI175
aaa(lp3679
(lp3680
I116
aI499
aI178
aa(lp3681
I0
aI0
aI467
aI442
aaa(lp3682
(lp3683
I116
aI499
aI178
aa(lp3684
I13
aI62
aI173
aI289
aI259
aaa(lp3685
(lp3686
I499
aI116
aI178
aa(lp3687
I278
aI175
aI355
aaa(lp3688
(lp3689
I499
aI116
aI411
aa(lp3690
I278
aI175
aI355
aaa(lp3691
(lp3692
I499
aI116
aI211
aa(lp3693
I278
aI175
aI259
aaa(lp3694
(lp3695
I499
aI28
aI211
aa(lp3696
I484
aI215
aI11
aI467
aI230
aI543
aI175
aI259
aaa(lp3697
(lp3698
I499
aI296
aI211
aa(lp3699
I278
aI175
aI173
aaa(lp3700
(lp3701
I594
aI2
aI99
aa(lp3702
I484
aI375
aI11
aI467
aI230
aI543
aI467
aI259
aI175
aaa(lp3703
(lp3704
I594
aI80
aI99
aa(lp3705
I484
aI99
aI11
aI467
aI126
aI543
aI467
aI355
aI175
aaa(lp3706
(lp3707
I594
aI80
aI132
aa(lp3708
I484
aI594
aI11
aI467
aI126
aI543
aI467
aI173
aI175
aaa(lp3709
(lp3710
I116
aI80
aI132
aa(lp3711
I484
aI340
aI11
aI467
aI230
aI543
aI467
aI173
aI175
aaa(lp3712
(lp3713
I630
aI80
aI132
aa(lp3714
I298
aI467
aI259
aI289
aI355
aI62
aaa(lp3715
(lp3716
I630
aI132
aI80
aa(lp3717
I484
aI132
aI11
aI467
aI126
aI543
aI467
aI259
aI175
aaa(lp3718
(lp3719
I630
aI552
aI80
aa(lp3720
I413
aI467
aI355
aI175
aaa(lp3721
(lp3722
I630
aI552
aI0
aa(lp3723
I413
aI467
aI355
aI175
aaa(lp3724
(lp3725
I630
aI552
aI80
aa(lp3726
I484
aI80
aI11
aI467
aI126
aI543
aI467
aI355
aI175
aaa(lp3727
(lp3728
I594
aI333
aI104
aa(lp3729
I298
aI467
aI173
aI289
aI259
aI62
aaa(lp3730
(lp3731
I333
aI594
aI104
aa(lp3732
I484
aI37
aI11
aI467
aI230
aI543
aI467
aI259
aI175
aaa(lp3733
(lp3734
I333
aI444
aI104
aa(lp3735
I484
aI333
aI11
aI467
aI126
aI543
aI467
aI173
aI175
aaa(lp3736
(lp3737
I268
aI444
aI104
aa(lp3738
I484
aI268
aI11
aI467
aI126
aI543
aI467
aI173
aI175
aaa(lp3739
(lp3740
I625
aI444
aI104
aa(lp3741
I484
aI206
aI11
aI467
aI126
aI543
aI467
aI259
aI175
aaa(lp3742
(lp3743
I625
aI66
aI104
aa(lp3744
I298
aI467
aI173
aI289
aI355
aI62
aaa(lp3745
(lp3746
I104
aI66
aI625
aa(lp3747
I298
aI467
aI259
aI289
aI355
aI62
aaa(lp3748
(lp3749
I104
aI625
aI66
aa(lp3750
I298
aI467
aI173
aI289
aI355
aI62
aaa(lp3751
(lp3752
I66
aI625
aI104
aa(lp3753
I341
aI37
aI83
aI467
aI173
aI175
aaa(lp3754
(lp3755
I594
aI333
aI612
aa(lp3756
I484
aI340
aI11
aI467
aI230
aI543
aI175
aI173
aaa(lp3757
(lp3758
I479
aI333
aI612
aa(lp3759
I413
aI467
aI158
aI543
aI175
aI173
aaa(lp3760
(lp3761
I281
aI333
aI612
aa(lp3762
I278
aI175
aI259
aaa(lp3763
(lp3764
I281
aI268
aI612
aa(lp3765
I538
aI173
aI499
aI83
aI175
aI259
aaa(lp3766
(lp3767
I281
aI523
aI612
aa(lp3768
I13
aI62
aI173
aI289
aI355
aaa(lp3769
(lp3770
I612
aI523
aI281
aa(lp3771
I0
aI0
aI467
aI442
aaa(lp3772
(lp3773
I612
aI523
aI281
aa(lp3774
I484
aI359
aI11
aI467
aI126
aI543
aI175
aI355
aaa(lp3775
(lp3776
I612
aI523
aI560
aa(lp3777
I484
aI146
aI11
aI467
aI230
aI543
aI175
aI259
aaa(lp3778
(lp3779
I612
aI0
aI560
aa(lp3780
I413
aI467
aI158
aI543
aI175
aI259
aaa(lp3781
(lp3782
I594
aI333
aI540
aa(lp3783
I484
aI140
aI11
aI126
aI543
aI467
aI173
aI175
aaa(lp3784
(lp3785
I551
aI333
aI540
aa(lp3786
I514
aI467
aI0
aI0
aaa(lp3787
(lp3788
I551
aI333
aI540
aa(lp3789
I484
aI199
aI11
aI126
aI543
aI467
aI259
aI175
aaa(lp3790
(lp3791
I551
aI166
aI540
aa(lp3792
I278
aI467
aI355
aI175
aaa(lp3793
(lp3794
I551
aI166
aI36
aa(lp3795
I484
aI366
aI606
aI467
aI565
aI543
aI467
aI355
aI175
aaa(lp3796
(lp3797
I551
aI166
aI581
aa(lp3798
I593
aI232
aI83
aI467
aI259
aI175
aaa(lp3799
(lp3800
I551
aI519
aI581
aa(lp3801
I593
aI37
aI83
aI467
aI259
aI175
aaa(lp3802
(lp3803
I551
aI520
aI581
aa(lp3804
I484
aI607
aI606
aI467
aI565
aI543
aI467
aI355
aI175
aaa(lp3805
(lp3806
I551
aI520
aI134
aa(lp3807
I13
aI467
aI173
aI289
aI355
aI62
aaa(lp3808
(lp3809
I594
aI333
aI540
aa(lp3810
I484
aI140
aI11
aI467
aI126
aI543
aI467
aI173
aI175
aaa(lp3811
(lp3812
I551
aI333
aI540
aa(lp3813
I0
aI0
aI0
aI0
aI515
aI0
aI67
aaa(lp3814
(lp3815
I551
aI333
aI540
aa(lp3816
I484
aI199
aI11
aI467
aI126
aI543
aI467
aI259
aI175
aaa(lp3817
(lp3818
I551
aI166
aI540
aa(lp3819
I484
aI540
aI11
aI467
aI126
aI543
aI467
aI355
aI175
aaa(lp3820
(lp3821
I551
aI166
aI36
aa(lp3822
I484
aI366
aI11
aI467
aI196
aI543
aI467
aI355
aI175
aaa(lp3823
(lp3824
I551
aI166
aI581
aa(lp3825
I341
aI232
aI83
aI467
aI126
aI543
aI467
aI259
aI175
aaa(lp3826
(lp3827
I551
aI519
aI581
aa(lp3828
I341
aI37
aI83
aI467
aI126
aI543
aI467
aI259
aI175
aaa(lp3829
(lp3830
I551
aI520
aI581
aa(lp3831
I484
aI607
aI11
aI467
aI196
aI543
aI467
aI355
aI175
aaa(lp3832
(lp3833
I551
aI520
aI134
aa(lp3834
I298
aI467
aI173
aI289
aI355
aI62
aaa(lp3835
(lp3836
I594
aI333
aI531
aa(lp3837
I298
aI467
aI259
aI289
aI355
aI62
aaa(lp3838
(lp3839
I594
aI531
aI333
aa(lp3840
I484
aI594
aI11
aI467
aI126
aI543
aI467
aI173
aI175
aaa(lp3841
(lp3842
I116
aI531
aI333
aa(lp3843
I484
aI256
aI11
aI467
aI196
aI543
aI467
aI259
aI175
aaa(lp3844
(lp3845
I116
aI0
aI333
aa(lp3846
I484
aI0
aI11
aI467
aI196
aI543
aI467
aI259
aI175
aaa(lp3847
(lp3848
I116
aI112
aI333
aa(lp3849
I484
aI116
aI11
aI467
aI126
aI543
aI467
aI173
aI175
aaa(lp3850
(lp3851
I28
aI112
aI333
aa(lp3852
I413
aI467
aI158
aI543
aI467
aI554
aI435
aI467
aI259
aI175
aaa(lp3853
(lp3854
I28
aI128
aI333
aa(lp3855
I484
aI187
aI11
aI467
aI196
aI543
aI467
aI355
aI175
aaa(lp3856
(lp3857
I28
aI128
aI295
aa(lp3858
I484
aI613
aI11
aI467
aI126
aI543
aI467
aI259
aI175
aaa(lp3859
(lp3860
I28
aI618
aI295
aa(lp3861
I413
aI467
aI158
aI543
aI467
aI554
aI435
aI467
aI259
aI175
aaa(lp3862
(lp3863
I594
aI526
aI574
aa(lp3864
I88
aI175
aI259
aaa(lp3865
(lp3866
I594
aI587
aI574
aa(lp3867
I88
aI175
aI259
aaa(lp3868
(lp3869
I594
aI77
aI574
aa(lp3870
I113
aI0
aaa(lp3871
(lp3872
I594
aI77
aI574
aa(lp3873
I13
aI175
aI259
aI289
aI355
aaa(lp3874
(lp3875
I594
aI574
aI77
aa(lp3876
I113
aI0
aaa(lp3877
(lp3878
I594
aI574
aI77
aa(lp3879
I484
aI152
aI11
aI467
aI196
aI543
aI175
aI173
aaa(lp3880
(lp3881
I167
aI574
aI77
aa(lp3882
I113
aI0
aaa(lp3883
(lp3884
I167
aI574
aI77
aa(lp3885
I484
aI146
aI11
aI467
aI196
aI543
aI175
aI173
aaa(lp3886
(lp3887
I75
aI574
aI77
aa(lp3888
I113
aI0
aaa(lp3889
(lp3890
I594
aI526
aI574
aa(lp3891
I484
aI526
aI11
aI467
aI126
aI543
aI467
aI259
aI175
aaa(lp3892
(lp3893
I594
aI587
aI574
aa(lp3894
I484
aI587
aI11
aI467
aI126
aI543
aI467
aI259
aI175
aaa(lp3895
(lp3896
I594
aI77
aI574
aa(lp3897
I0
aI0
aaa(lp3898
(lp3899
I594
aI77
aI574
aa(lp3900
I298
aI467
aI259
aI289
aI355
aI175
aaa(lp3901
(lp3902
I594
aI574
aI77
aa(lp3903
I0
aI0
aaa(lp3904
(lp3905
I594
aI574
aI77
aa(lp3906
I484
aI49
aI11
aI467
aI230
aI543
aI467
aI173
aI175
aaa(lp3907
(lp3908
I167
aI574
aI77
aa(lp3909
I0
aI0
aaa(lp3910
(lp3911
I167
aI574
aI77
aa(lp3912
I484
aI146
aI11
aI467
aI230
aI543
aI467
aI173
aI175
aaa(lp3913
(lp3914
I75
aI574
aI77
aa(lp3915
I0
aI0
aaa(lp3916
(lp3917
I594
aI333
aI339
aa(lp3918
I341
aI600
aI147
aaa(lp3919
(lp3920
I147
aI333
aI339
aa(lp3921
I484
aI157
aI11
aI467
aI126
aI543
aI175
aI355
aaa(lp3922
(lp3923
I147
aI333
aI0
aa(lp3924
I341
aI147
aI153
aaa(lp3925
(lp3926
I147
aI333
aI403
aa(lp3927
I484
aI103
aI11
aI467
aI196
aI543
aI175
aI259
aaa(lp3928
(lp3929
I147
aI582
aI403
aa(lp3930
I298
aI62
aI173
aI289
aI355
aaa(lp3931
(lp3932
I403
aI582
aI147
aa(lp3933
I484
aI12
aI11
aI467
aI126
aI543
aI175
aI259
aaa(lp3934
(lp3935
I403
aI55
aI147
aa(lp3936
I484
aI147
aI11
aI175
aI355
aaa(lp3937
(lp3938
I403
aI55
aI594
aa(lp3939
I484
aI594
aI11
aI175
aI355
aaa(lp3940
(lp3941
I403
aI55
aI116
aa(lp3942
I484
aI55
aI11
aI175
aI259
aaa(lp3943
(lp3944
I594
aI2
aI363
aa(lp3945
I0
aI0
aaa(lp3946
(lp3947
I594
aI2
aI363
aa(lp3948
I484
aI2
aI11
aI467
aI126
aI543
aI467
aI259
aI175
aaa(lp3949
(lp3950
I594
aI60
aI363
aa(lp3951
I0
aI0
aaa(lp3952
(lp3953
I594
aI60
aI363
aa(lp3954
I484
aI363
aI11
aI467
aI126
aI543
aI467
aI355
aI175
aaa(lp3955
(lp3956
I594
aI60
aI213
aa(lp3957
I484
aI449
aI11
aI467
aI230
aI543
aI467
aI355
aI175
aaa(lp3958
(lp3959
I594
aI60
aI145
aa(lp3960
I484
aI375
aI11
aI467
aI230
aI543
aI467
aI355
aI175
aaa(lp3961
(lp3962
I594
aI60
aI297
aa(lp3963
I341
aI147
aI83
aI467
aI173
aI175
aaa(lp3964
(lp3965
I147
aI60
aI297
aa(lp3966
I484
aI60
aI11
aI467
aI126
aI543
aI467
aI259
aI175
aaa(lp3967
(lp3968
I147
aI352
aI297
aa(lp3969
I298
aI467
aI173
aI289
aI259
aI175
aaa(lp3970
(lp3971
I594
aI333
aI210
aa(lp3972
I341
aI600
aI147
aI83
aI467
aI173
aI175
aaa(lp3973
(lp3974
I147
aI333
aI210
aa(lp3975
I484
aI210
aI11
aI467
aI355
aI175
aaa(lp3976
(lp3977
I147
aI333
aI395
aa(lp3978
I341
aI147
aI499
aI83
aI467
aI259
aI175
aaa(lp3979
(lp3980
I147
aI499
aI395
aa(lp3981
I484
aI480
aI11
aI467
aI196
aI543
aI467
aI355
aI175
aaa(lp3982
(lp3983
I147
aI499
aI470
aa(lp3984
I484
aI340
aI11
aI467
aI196
aI543
aI467
aI259
aI175
aaa(lp3985
(lp3986
I147
aI579
aI470
aa(lp3987
I341
aI467
aI173
aI175
aaa(lp3988
(lp3989
I579
aI470
aa(lp3990
I13
aI467
aI259
aI62
aaa(lp3991
(lp3992
I470
aI579
aa(lp3993
I484
aI627
aI11
aI467
aI126
aI543
aI467
aI259
aI175
aaa(lp3994
(lp3995
I470
aI415
aa(lp3996
I484
aI418
aI11
aI467
aI126
aI543
aI467
aI259
aI175
aaa(lp3997
(lp3998
I594
aI333
aI210
aa(lp3999
I341
aI147
aI83
aI467
aI126
aI543
aI467
aI173
aI175
aaa(lp4000
(lp4001
I147
aI333
aI210
aa(lp4002
I484
aI210
aI11
aI467
aI126
aI543
aI467
aI355
aI175
aaa(lp4003
(lp4004
I147
aI333
aI395
aa(lp4005
I341
aI499
aI83
aI467
aI126
aI543
aI467
aI259
aI175
aaa(lp4006
(lp4007
I147
aI499
aI395
aa(lp4008
I484
aI480
aI11
aI467
aI230
aI543
aI467
aI355
aI175
aaa(lp4009
(lp4010
I147
aI499
aI470
aa(lp4011
I484
aI340
aI11
aI467
aI230
aI543
aI467
aI259
aI175
aaa(lp4012
(lp4013
I147
aI579
aI470
aa(lp4014
I341
aI467
aI173
aI175
aaa(lp4015
(lp4016
I579
aI470
aa(lp4017
I298
aI467
aI173
aI289
aI259
aI62
aaa(lp4018
(lp4019
I470
aI579
aa(lp4020
I484
aI627
aI11
aI467
aI126
aI543
aI467
aI259
aI175
aaa(lp4021
(lp4022
I470
aI415
aa(lp4023
I484
aI418
aI11
aI467
aI126
aI543
aI467
aI259
aI175
aaa(lp4024
(lp4025
I594
aI333
aI150
aa(lp4026
I341
aI147
aI83
aI467
aI126
aI543
aI467
aI173
aI175
aaa(lp4027
(lp4028
I147
aI333
aI150
aa(lp4029
I484
aI333
aI11
aI467
aI126
aI543
aI467
aI259
aI175
aaa(lp4030
(lp4031
I147
aI268
aI150
aa(lp4032
I484
aI250
aI11
aI467
aI126
aI543
aI467
aI355
aI175
aaa(lp4033
(lp4034
I147
aI268
aI369
aa(lp4035
I484
aI0
aI11
aI467
aI230
aI543
aI467
aI259
aI175
aaa(lp4036
(lp4037
I147
aI277
aI369
aa(lp4038
I298
aI467
aI173
aI289
aI259
aI175
aaa(lp4039
(lp4040
I277
aI147
aI369
aa(lp4041
I0
aI0
aaa(lp4042
(lp4043
I277
aI147
aI369
aa(lp4044
I484
aI369
aI11
aI467
aI126
aI543
aI467
aI355
aI175
aaa(lp4045
(lp4046
I277
aI147
aI316
aa(lp4047
I341
aI467
aI259
aI175
aaa(lp4048
(lp4049
I277
aI316
aa(lp4050
I484
aI333
aI603
aI467
aI259
aI175
aaa(lp4051
(lp4052
I594
aI333
aI8
aa(lp4053
I278
aI467
aI259
aI175
aaa(lp4054
(lp4055
I594
aI268
aI8
aa(lp4056
I484
aI0
aI11
aI467
aI173
aI175
aaa(lp4057
(lp4058
I332
aI268
aI8
aa(lp4059
I13
aI467
aI173
aI289
aI355
aI62
aaa(lp4060
(lp4061
I8
aI268
aI332
aa(lp4062
I0
aI467
aI0
aI0
aaa(lp4063
(lp4064
I8
aI268
aI332
aa(lp4065
I593
aI467
aI173
aI305
aI543
aI467
aI259
aI175
aaa(lp4066
(lp4067
I8
aI523
aI332
aa(lp4068
I278
aI467
aI259
aI175
aaa(lp4069
(lp4070
I8
aI460
aI332
aa(lp4071
I0
aI467
aI0
aI0
aaa(lp4072
(lp4073
I8
aI460
aI332
aa(lp4074
I514
aI467
aI0
aI67
aaa(lp4075
(lp4076
I8
aI460
aI332
aa(lp4077
I593
aI467
aI355
aI305
aaa(lp4078
(lp4079
I594
aI333
aI584
aa(lp4080
I0
aI0
aI11
aI0
aI67
aaa(lp4081
(lp4082
I594
aI333
aI584
aa(lp4083
I298
aI467
aI173
aI289
aI259
aI62
aaa(lp4084
(lp4085
I333
aI594
aI584
aa(lp4086
I0
aI0
aI11
aI0
aI67
aaa(lp4087
(lp4088
I333
aI594
aI584
aa(lp4089
I341
aI499
aI83
aI467
aI126
aI543
aI467
aI173
aI175
aaa(lp4090
(lp4091
I499
aI594
aI584
aa(lp4092
I341
aI499
aI83
aI467
aI173
aI175
aaa(lp4093
(lp4094
I594
aI584
aa(lp4095
I341
aI627
aI83
aI467
aI126
aI543
aI467
aI259
aI175
aaa(lp4096
(lp4097
I594
aI627
aa(lp4098
I484
aI613
aI11
aI467
aI126
aI543
aI467
aI259
aI175
aaa(lp4099
(lp4100
I594
aI441
aa(lp4101
I341
aI147
aI83
aI467
aI126
aI543
aI467
aI173
aI175
aaa(lp4102
(lp4103
I147
aI441
aa(lp4104
I413
aI467
aI158
aI543
aI467
aI554
aI435
aI467
aI259
aI175
aaa(lp4105
(lp4106
I594
aI333
aI584
aa(lp4107
I0
aI0
aaa(lp4108
(lp4109
I594
aI333
aI584
aa(lp4110
I298
aI467
aI173
aI289
aI259
aI62
aaa(lp4111
(lp4112
I333
aI594
aI584
aa(lp4113
I0
aI0
aaa(lp4114
(lp4115
I333
aI594
aI584
aa(lp4116
I341
aI499
aI83
aI467
aI126
aI543
aI467
aI173
aI175
aaa(lp4117
(lp4118
I499
aI594
aI584
aa(lp4119
I341
aI467
aI173
aI175
aaa(lp4120
(lp4121
I594
aI584
aa(lp4122
I341
aI627
aI83
aI467
aI126
aI543
aI467
aI259
aI175
aaa(lp4123
(lp4124
I594
aI627
aa(lp4125
I484
aI613
aI11
aI467
aI126
aI543
aI467
aI259
aI175
aaa(lp4126
(lp4127
I594
aI441
aa(lp4128
I341
aI147
aI83
aI467
aI126
aI543
aI467
aI173
aI175
aaa(lp4129
(lp4130
I147
aI441
aa(lp4131
I413
aI467
aI259
aI175
aaa(lp4132
(lp4133
I594
aI333
aI434
aa(lp4134
I278
aI175
aI355
aaa(lp4135
(lp4136
I594
aI333
aI614
aa(lp4137
I484
aI344
aI11
aI467
aI126
aI543
aI259
aaa(lp4138
(lp4139
I594
aI91
aI614
aa(lp4140
I341
aI499
aaa(lp4141
(lp4142
I594
aI421
aI614
aa(lp4143
I278
aI175
aI259
aaa(lp4144
(lp4145
I594
aI109
aI614
aa(lp4146
I484
aI193
aI11
aI467
aI196
aI543
aI173
aaa(lp4147
(lp4148
I494
aI109
aI614
aa(lp4149
I298
aI173
aI289
aI259
aaa(lp4150
(lp4151
I109
aI494
aI614
aa(lp4152
I298
aI259
aI289
aI355
aaa(lp4153
(lp4154
I109
aI614
aI494
aa(lp4155
I278
aI175
aI259
aaa(lp4156
(lp4157
I109
aI534
aI494
aa(lp4158
I341
aI147
aaa(lp4159
(lp4160
I594
aI333
aI434
aa(lp4161
I88
aI175
aI355
aaa(lp4162
(lp4163
I594
aI333
aI614
aa(lp4164
I484
aI344
aI11
aI467
aI126
aI543
aI175
aI259
aaa(lp4165
(lp4166
I594
aI91
aI614
aa(lp4167
I341
aI147
aI499
aI83
aI175
aI259
aaa(lp4168
(lp4169
I594
aI421
aI614
aa(lp4170
I88
aI175
aI259
aaa(lp4171
(lp4172
I594
aI109
aI614
aa(lp4173
I484
aI193
aI11
aI467
aI196
aI543
aI175
aI173
aaa(lp4174
(lp4175
I494
aI109
aI614
aa(lp4176
I13
aI175
aI173
aI289
aI259
aaa(lp4177
(lp4178
I109
aI494
aI614
aa(lp4179
I13
aI175
aI259
aI289
aI355
aaa(lp4180
(lp4181
I109
aI614
aI494
aa(lp4182
I88
aI175
aI259
aaa(lp4183
(lp4184
I109
aI534
aI494
aa(lp4185
I341
aI147
aI110
aI83
aI175
aI259
aaa(lp4186
(lp4187
I594
aI333
aI362
aa(lp4188
I0
aI0
aI62
aI467
aI442
aaa(lp4189
(lp4190
I594
aI333
aI362
aa(lp4191
I341
aI195
aI543
aI467
aI355
aI175
aaa(lp4192
(lp4193
I594
aI333
aI239
aa(lp4194
I341
aI195
aI543
aI467
aI259
aI175
aaa(lp4195
(lp4196
I594
aI499
aI239
aa(lp4197
I278
aI467
aI355
aI175
aaa(lp4198
(lp4199
I594
aI499
aI362
aa(lp4200
I484
aI375
aI11
aI467
aI230
aI543
aI467
aI259
aI175
aaa(lp4201
(lp4202
I594
aI159
aI362
aa(lp4203
I278
aI467
aI355
aI175
aaa(lp4204
(lp4205
I594
aI159
aI443
aa(lp4206
I484
aI545
aI11
aI467
aI259
aI543
aI467
aI259
aI175
aaa(lp4207
(lp4208
I594
aI496
aI443
aa(lp4209
I278
aI467
aI355
aI175
aaa(lp4210
(lp4211
I594
aI496
aI201
aa(lp4212
I484
aI359
aI11
aI467
aI126
aI543
aI467
aI259
aI175
aaa(lp4213
(lp4214
I594
aI333
aI362
aa(lp4215
I113
aI0
aaa(lp4216
(lp4217
I594
aI333
aI362
aa(lp4218
I341
aI147
aI239
aI83
aI175
aI355
aaa(lp4219
(lp4220
I594
aI333
aI239
aa(lp4221
I341
aI147
aI499
aI83
aI175
aI259
aaa(lp4222
(lp4223
I594
aI499
aI239
aa(lp4224
I484
aI147
aI239
aI11
aI175
aI355
aaa(lp4225
(lp4226
I594
aI499
aI362
aa(lp4227
I484
aI600
aI375
aI11
aI467
aI565
aI543
aI175
aI259
aaa(lp4228
(lp4229
I594
aI159
aI362
aa(lp4230
I514
aI175
aI355
aaa(lp4231
(lp4232
I594
aI159
aI443
aa(lp4233
I484
aI493
aI11
aI467
aI126
aI543
aI175
aI259
aaa(lp4234
(lp4235
I594
aI496
aI443
aa(lp4236
I514
aI175
aI355
aaa(lp4237
(lp4238
I594
aI496
aI201
aa(lp4239
I484
aI359
aI11
aI467
aI126
aI543
aI175
aI259
aaa(lp4240
(lp4241
I594
aI333
aI247
aa(lp4242
I0
aI467
aI0
aI0
aaa(lp4243
(lp4244
I594
aI549
aI247
aa(lp4245
I278
aI467
aI355
aI175
aaa(lp4246
(lp4247
I594
aI549
aI0
aa(lp4248
I593
aI173
aI343
aI83
aI467
aI355
aI175
aaa(lp4249
(lp4250
I594
aI549
aI407
aa(lp4251
I13
aI467
aI355
aI259
aI62
aaa(lp4252
(lp4253
I594
aI407
aI549
aa(lp4254
I514
aI467
aI0
aI67
aaa(lp4255
(lp4256
I594
aI549
aI407
aa(lp4257
I514
aI467
aI0
aI67
aaa(lp4258
(lp4259
I594
aI407
aI549
aa(lp4260
I484
aI215
aI606
aI565
aI543
aI355
aI175
aaa(lp4261
(lp4262
I594
aI407
aI0
aa(lp4263
I484
aI65
aI11
aI126
aI543
aI355
aI175
aaa(lp4264
(lp4265
I594
aI407
aI124
aa(lp4266
I593
aI467
aI173
aI305
aI543
aI467
aI259
aI175
aaa(lp4267
(lp4268
I594
aI333
aI462
aa(lp4269
I593
aI467
aI173
aI499
aaa(lp4270
(lp4271
I594
aI499
aI462
aa(lp4272
I0
aI467
aI0
aI0
aaa(lp4273
(lp4274
I594
aI499
aI462
aa(lp4275
I484
aI380
aI11
aI467
aI565
aI543
aI467
aI259
aI175
aaa(lp4276
(lp4277
I594
aI580
aI462
aa(lp4278
I0
aI467
aI0
aI0
aaa(lp4279
(lp4280
I594
aI580
aI462
aa(lp4281
I278
aI467
aI355
aI175
aaa(lp4282
(lp4283
I594
aI580
aI512
aa(lp4284
I484
aI157
aI606
aI467
aI126
aI543
aI467
aI355
aI175
aaa(lp4285
(lp4286
I594
aI580
aI331
aa(lp4287
I13
aI467
aI173
aI259
aI62
aaa(lp4288
(lp4289
I580
aI594
aI331
aa(lp4290
I13
aI467
aI173
aI289
aI355
aI175
aaa(lp4291
(lp4292
I331
aI594
aI580
aa(lp4293
I484
aI359
aI11
aI467
aI126
aI543
aI467
aI355
aI175
aaa(lp4294
(lp4295
I594
aI333
aI462
aa(lp4296
I341
aI499
aaa(lp4297
(lp4298
I594
aI499
aI462
aa(lp4299
I113
aI0
aaa(lp4300
(lp4301
I594
aI499
aI462
aa(lp4302
I484
aI380
aI11
aI467
aI196
aI543
aI259
aaa(lp4303
(lp4304
I594
aI580
aI462
aa(lp4305
I113
aI0
aaa(lp4306
(lp4307
I594
aI580
aI462
aa(lp4308
I278
aI175
aI355
aaa(lp4309
(lp4310
I594
aI580
aI512
aa(lp4311
I484
aI157
aI11
aI467
aI126
aI543
aI355
aaa(lp4312
(lp4313
I594
aI580
aI331
aa(lp4314
I298
aI173
aI289
aI259
aaa(lp4315
(lp4316
I580
aI594
aI331
aa(lp4317
I298
aI173
aI289
aI355
aaa(lp4318
(lp4319
I331
aI594
aI580
aa(lp4320
I484
aI359
aI11
aI467
aI126
aI543
aI355
aaa(lp4321
(lp4322
I594
aI333
aI46
aa(lp4323
I341
aI467
aI591
aI83
aI467
aI126
aI543
aI467
aI355
aI175
aaa(lp4324
(lp4325
I594
aI333
aI591
aa(lp4326
I341
aI467
aI355
aI175
aaa(lp4327
(lp4328
I594
aI333
aa(lp4329
I341
aI147
aI83
aI467
aI126
aI543
aI467
aI173
aI175
aaa(lp4330
(lp4331
I147
aI333
aa(lp4332
I0
aI0
aaa(lp4333
(lp4334
I147
aI333
aa(lp4335
I484
aI147
aI11
aI467
aI126
aI543
aI467
aI173
aI175
aaa(lp4336
(lp4337
I594
aI333
aa(lp4338
I341
aI147
aI83
aI467
aI126
aI543
aI467
aI173
aI175
aaa(lp4339
(lp4340
I147
aI333
aa(lp4341
I484
aI333
aI11
aI467
aI126
aI543
aI467
aI259
aI175
aaa(lp4342
(lp4343
I147
aI268
aa(lp4344
I341
aI467
aI173
aI175
aaa(lp4345
(lp4346
I268
aa(lp4347
I0
aI0
aaa(lp4348
(lp4349
I594
aI202
aI143
aa(lp4350
I484
aI375
aI11
aI467
aI126
aI543
aI175
aI173
aaa(lp4351
(lp4352
I286
aI202
aI143
aa(lp4353
I13
aI175
aI259
aI289
aI355
aaa(lp4354
(lp4355
I286
aI143
aI202
aa(lp4356
I514
aI175
aI259
aaa(lp4357
(lp4358
I286
aI52
aI202
aa(lp4359
I113
aI0
aaa(lp4360
(lp4361
I286
aI52
aI202
aa(lp4362
I514
aI175
aI355
aaa(lp4363
(lp4364
I286
aI52
aI21
aa(lp4365
I341
aI600
aI103
aI83
aI175
aI259
aaa(lp4366
(lp4367
I286
aI168
aI21
aa(lp4368
I341
aI600
aI622
aI83
aI175
aI355
aaa(lp4369
(lp4370
I286
aI168
aI506
aa(lp4371
I13
aI175
aI173
aI289
aI355
aaa(lp4372
(lp4373
I506
aI168
aI286
aa(lp4374
I514
aI175
aI259
aaa(lp4375
(lp4376
I594
aI202
aI143
aa(lp4377
I484
aI375
aI11
aI467
aI126
aI543
aI467
aI173
aI175
aaa(lp4378
(lp4379
I286
aI202
aI143
aa(lp4380
I298
aI467
aI259
aI289
aI355
aI62
aaa(lp4381
(lp4382
I286
aI143
aI202
aa(lp4383
I484
aI143
aI11
aI467
aI126
aI543
aI467
aI259
aI175
aaa(lp4384
(lp4385
I286
aI52
aI202
aa(lp4386
I0
aI0
aaa(lp4387
(lp4388
I286
aI52
aI202
aa(lp4389
I484
aI202
aI11
aI467
aI126
aI543
aI467
aI355
aI175
aaa(lp4390
(lp4391
I286
aI52
aI21
aa(lp4392
I341
aI103
aI83
aI467
aI126
aI543
aI467
aI259
aI175
aaa(lp4393
(lp4394
I286
aI168
aI21
aa(lp4395
I341
aI622
aI83
aI467
aI126
aI543
aI467
aI355
aI175
aaa(lp4396
(lp4397
I286
aI168
aI506
aa(lp4398
I298
aI467
aI173
aI289
aI355
aI62
aaa(lp4399
(lp4400
I506
aI168
aI286
aa(lp4401
I484
aI168
aI11
aI467
aI126
aI543
aI467
aI259
aI175
aaa(lp4402
(lp4403
I594
aI202
aI2
aa(lp4404
I341
aI622
aI83
aI467
aI126
aI543
aI467
aI259
aI175
aaa(lp4405
(lp4406
I594
aI622
aI2
aa(lp4407
I0
aI0
aI11
aI0
aI67
aaa(lp4408
(lp4409
I594
aI622
aI2
aa(lp4410
I484
aI125
aI11
aI467
aI126
aI543
aI467
aI259
aI175
aaa(lp4411
(lp4412
I594
aI227
aI2
aa(lp4413
I484
aI594
aI11
aI467
aI126
aI543
aI467
aI173
aI175
aaa(lp4414
(lp4415
I116
aI227
aI2
aa(lp4416
I484
aI188
aI11
aI467
aI196
aI543
aI467
aI355
aI175
aaa(lp4417
(lp4418
I116
aI227
aI611
aa(lp4419
I298
aI467
aI259
aI289
aI355
aI62
aaa(lp4420
(lp4421
I116
aI611
aI227
aa(lp4422
I484
aI187
aI11
aI467
aI196
aI543
aI467
aI173
aI175
aaa(lp4423
(lp4424
I217
aI611
aI227
aa(lp4425
I413
aI467
aI158
aI543
aI467
aI554
aI435
aI467
aI355
aI175
aaa(lp4426
(lp4427
I217
aI611
aI144
aa(lp4428
I341
aI273
aI83
aI467
aI196
aI543
aI467
aI355
aI175
aaa(lp4429
(lp4430
I594
aI202
aI2
aa(lp4431
I341
aI622
aaa(lp4432
(lp4433
I594
aI622
aI2
aa(lp4434
I113
aI0
aaa(lp4435
(lp4436
I594
aI622
aI2
aa(lp4437
I484
aI125
aI11
aI467
aI126
aI543
aI175
aI259
aaa(lp4438
(lp4439
I594
aI227
aI2
aa(lp4440
I278
aI175
aI173
aaa(lp4441
(lp4442
I116
aI227
aI2
aa(lp4443
I484
aI188
aI11
aI467
aI196
aI543
aI175
aI355
aaa(lp4444
(lp4445
I116
aI227
aI611
aa(lp4446
I298
aI259
aI289
aI355
aaa(lp4447
(lp4448
I116
aI611
aI227
aa(lp4449
I484
aI187
aI11
aI467
aI196
aI543
aI173
aaa(lp4450
(lp4451
I217
aI611
aI227
aa(lp4452
I413
aI355
aaa(lp4453
(lp4454
I217
aI611
aI144
aa(lp4455
I341
aI273
aaa(lp4456
(lp4457
I594
aI202
aI2
aa(lp4458
I538
aI600
aI622
aI83
aI175
aI259
aaa(lp4459
(lp4460
I594
aI622
aI2
aa(lp4461
I0
aI0
aI467
aI442
aaa(lp4462
(lp4463
I594
aI622
aI2
aa(lp4464
I484
aI125
aI11
aI467
aI126
aI543
aI0
aaa(lp4465
(lp4466
I594
aI227
aI2
aa(lp4467
I278
aI175
aI173
aaa(lp4468
(lp4469
I116
aI227
aI2
aa(lp4470
I484
aI188
aI11
aI467
aI230
aI543
aI175
aI355
aaa(lp4471
(lp4472
I116
aI227
aI611
aa(lp4473
I13
aI175
aI259
aI289
aI355
aaa(lp4474
(lp4475
I116
aI611
aI227
aa(lp4476
I484
aI187
aI11
aI467
aI230
aI543
aI175
aI173
aaa(lp4477
(lp4478
I217
aI611
aI227
aa(lp4479
I413
aI467
aI158
aI543
aI175
aI355
aaa(lp4480
(lp4481
I217
aI611
aI144
aa(lp4482
I538
aI273
aI83
aI175
aI355
aaa(lp4483
(lp4484
I594
aI202
aI574
aa(lp4485
I113
aI0
aaa(lp4486
(lp4487
I594
aI202
aI574
aa(lp4488
I341
aI622
aaa(lp4489
(lp4490
I594
aI622
aI574
aa(lp4491
I484
aI107
aI11
aI467
aI196
aI543
aI175
aI259
aaa(lp4492
(lp4493
I594
aI14
aI574
aa(lp4494
I484
aI181
aI11
aI467
aI126
aI543
aI175
aI259
aaa(lp4495
(lp4496
I594
aI131
aI574
aa(lp4497
I341
aI340
aaa(lp4498
(lp4499
I594
aI131
aI340
aa(lp4500
I225
aaa(lp4501
(lp4502
I594
aI131
aI574
aa(lp4503
I341
aI147
aaa(lp4504
(lp4505
I147
aI131
aI574
aa(lp4506
I413
aI259
aaa(lp4507
(lp4508
I147
aI0
aI574
aa(lp4509
I113
aI0
aaa(lp4510
(lp4511
I594
aI202
aI363
aa(lp4512
I278
aI467
aI173
aI175
aaa(lp4513
(lp4514
I116
aI202
aI363
aa(lp4515
I484
aI428
aI11
aI467
aI126
aI543
aI467
aI259
aI175
aaa(lp4516
(lp4517
I116
aI410
aI363
aa(lp4518
I13
aI467
aI355
aI259
aI62
aaa(lp4519
(lp4520
I116
aI363
aI410
aa(lp4521
I278
aI467
aI173
aI175
aaa(lp4522
(lp4523
I28
aI363
aI410
aa(lp4524
I341
aI195
aI543
aI467
aI259
aI175
aaa(lp4525
(lp4526
I28
aI586
aI410
aa(lp4527
I484
aI107
aI11
aI467
aI230
aI543
aI467
aI264
aI175
aaa(lp4528
(lp4529
I28
aI586
aI492
aa(lp4530
I484
aI6
aI11
aI467
aI126
aI543
aI467
aI259
aI175
aaa(lp4531
(lp4532
I28
aI315
aI492
aa(lp4533
I484
aI199
aI11
aI467
aI126
aI543
aI467
aI259
aI175
aaa(lp4534
(lp4535
I28
aI361
aI492
aa(lp4536
I341
aI467
aI355
aI305
aI543
aI467
aI173
aI175
aaa(lp4537
(lp4538
I594
aI202
aI363
aa(lp4539
I484
aI594
aI11
aI467
aI126
aI543
aI467
aI173
aI175
aaa(lp4540
(lp4541
I116
aI202
aI363
aa(lp4542
I484
aI428
aI11
aI467
aI126
aI543
aI467
aI259
aI175
aaa(lp4543
(lp4544
I116
aI410
aI363
aa(lp4545
I298
aI467
aI259
aI289
aI355
aI62
aaa(lp4546
(lp4547
I116
aI363
aI410
aa(lp4548
I484
aI116
aI11
aI467
aI126
aI543
aI467
aI173
aI175
aaa(lp4549
(lp4550
I28
aI363
aI410
aa(lp4551
I341
aI586
aI83
aI467
aI126
aI543
aI467
aI259
aI175
aaa(lp4552
(lp4553
I28
aI586
aI410
aa(lp4554
I484
aI107
aI11
aI467
aI196
aI543
aI467
aI355
aI175
aaa(lp4555
(lp4556
I28
aI586
aI492
aa(lp4557
I484
aI6
aI11
aI467
aI126
aI543
aI467
aI259
aI175
aaa(lp4558
(lp4559
I28
aI315
aI492
aa(lp4560
I484
aI199
aI11
aI467
aI126
aI543
aI467
aI259
aI175
aaa(lp4561
(lp4562
I28
aI361
aI492
aa(lp4563
I341
aI147
aI83
aI467
aI126
aI543
aI467
aI173
aI175
aaa(lp4564
(lp4565
I594
aI202
aI363
aa(lp4566
I278
aI175
aI173
aaa(lp4567
(lp4568
I116
aI202
aI363
aa(lp4569
I484
aI428
aI11
aI467
aI126
aI543
aI175
aI259
aaa(lp4570
(lp4571
I116
aI410
aI363
aa(lp4572
I298
aI62
aI259
aI289
aI355
aaa(lp4573
(lp4574
I116
aI363
aI410
aa(lp4575
I278
aI173
aaa(lp4576
(lp4577
I28
aI363
aI410
aa(lp4578
I341
aI586
aaa(lp4579
(lp4580
I28
aI586
aI410
aa(lp4581
I484
aI107
aI11
aI467
aI196
aI543
aI355
aaa(lp4582
(lp4583
I28
aI586
aI492
aa(lp4584
I484
aI6
aI11
aI467
aI126
aI543
aI259
aaa(lp4585
(lp4586
I28
aI315
aI492
aa(lp4587
I484
aI199
aI11
aI467
aI126
aI543
aI259
aaa(lp4588
(lp4589
I28
aI361
aI492
aa(lp4590
I341
aI147
aaa(lp4591
(lp4592
I594
aI202
aI178
aa(lp4593
I484
aI371
aI11
aI467
aI126
aI543
aI467
aI259
aI175
aaa(lp4594
(lp4595
I594
aI108
aI178
aa(lp4596
I413
aI467
aI259
aI175
aaa(lp4597
(lp4598
I594
aI557
aI178
aa(lp4599
I484
aI178
aI11
aI467
aI126
aI543
aI467
aI355
aI175
aaa(lp4600
(lp4601
I594
aI557
aI411
aa(lp4602
I298
aI467
aI173
aI289
aI355
aI62
aaa(lp4603
(lp4604
I411
aI557
aI594
aa(lp4605
I341
aI147
aI83
aI467
aI126
aI543
aI467
aI355
aI175
aaa(lp4606
(lp4607
I411
aI557
aI147
aa(lp4608
I341
aI198
aI83
aI467
aI126
aI543
aI467
aI173
aI175
aaa(lp4609
(lp4610
I4
aI557
aI147
aa(lp4611
I484
aI147
aI11
aI467
aI126
aI543
aI467
aI355
aI175
aaa(lp4612
(lp4613
I4
aI557
aI594
aa(lp4614
I413
aI467
aI259
aI175
aaa(lp4615
(lp4616
I4
aI108
aI594
aa(lp4617
I341
aI622
aI83
aI467
aI230
aI543
aI467
aI259
aI175
aaa(lp4618
(lp4619
I594
aI202
aI104
aa(lp4620
I113
aI0
aaa(lp4621
(lp4622
I594
aI202
aI104
aa(lp4623
I298
aI62
aI173
aI289
aI259
aaa(lp4624
(lp4625
I202
aI594
aI104
aa(lp4626
I514
aaa(lp4627
(lp4628
I594
aI202
aI104
aa(lp4629
I484
aI418
aI11
aI467
aI196
aI543
aI259
aaa(lp4630
(lp4631
I594
aI51
aI104
aa(lp4632
I341
aI597
aaa(lp4633
(lp4634
I594
aI51
aI597
aa(lp4635
I341
aI418
aaa(lp4636
(lp4637
I594
aI202
aI597
aa(lp4638
I484
aI206
aI11
aI467
aI126
aI543
aI355
aaa(lp4639
(lp4640
I594
aI202
aI372
aa(lp4641
I278
aI175
aI259
aaa(lp4642
(lp4643
I594
aI21
aI372
aa(lp4644
I484
aI110
aI11
aI467
aI196
aI543
aI355
aaa(lp4645
(lp4646
I594
aI2
aI612
aa(lp4647
I593
aI467
aI355
aI305
aaa(lp4648
(lp4649
I594
aI2
aI418
aa(lp4650
I13
aI467
aI173
aI289
aI355
aI62
aaa(lp4651
(lp4652
I2
aI594
aI418
aa(lp4653
I484
aI471
aI606
aI467
aI126
aI543
aI467
aI259
aI175
aaa(lp4654
(lp4655
I2
aI464
aI418
aa(lp4656
I13
aI467
aI173
aI289
aI355
aI62
aaa(lp4657
(lp4658
I418
aI464
aI2
aa(lp4659
I13
aI467
aI173
aI259
aI62
aaa(lp4660
(lp4661
I464
aI418
aI2
aa(lp4662
I278
aI467
aI355
aI175
aaa(lp4663
(lp4664
I464
aI418
aI60
aa(lp4665
I0
aI467
aI0
aI0
aaa(lp4666
(lp4667
I464
aI418
aI60
aa(lp4668
I484
aI81
aI606
aI467
aI565
aI543
aI467
aI355
aI175
aaa(lp4669
(lp4670
I464
aI418
aI414
aa(lp4671
I413
aI467
aI158
aI543
aI467
aI355
aI175
aaa(lp4672
(lp4673
I594
aI526
aI363
aa(lp4674
I278
aI175
aI173
aaa(lp4675
(lp4676
I116
aI526
aI363
aa(lp4677
I538
aI600
aI147
aI83
aI175
aI173
aaa(lp4678
(lp4679
I274
aI526
aI363
aa(lp4680
I278
aI175
aI173
aaa(lp4681
(lp4682
I537
aI526
aI363
aa(lp4683
I538
aI147
aI273
aI83
aI175
aI259
aaa(lp4684
(lp4685
I537
aI273
aI363
aa(lp4686
I13
aI62
aI173
aI289
aI259
aaa(lp4687
(lp4688
I273
aI537
aI363
aa(lp4689
I484
aI215
aI11
aI467
aI230
aI543
aI175
aI355
aaa(lp4690
(lp4691
I273
aI537
aI123
aa(lp4692
I484
aI0
aI11
aI467
aI230
aI543
aI175
aI173
aaa(lp4693
(lp4694
I455
aI537
aI123
aa(lp4695
I484
aI49
aI11
aI467
aI230
aI543
aI175
aI355
aaa(lp4696
(lp4697
I455
aI537
aI405
aa(lp4698
I484
aI146
aI11
aI467
aI230
aI543
aI175
aI259
aaa(lp4699
(lp4700
I594
aI526
aI363
aa(lp4701
I484
aI594
aI11
aI467
aI126
aI543
aI467
aI173
aI175
aaa(lp4702
(lp4703
I116
aI526
aI363
aa(lp4704
I341
aI147
aI83
aI467
aI126
aI543
aI467
aI173
aI175
aaa(lp4705
(lp4706
I274
aI526
aI363
aa(lp4707
I484
aI274
aI11
aI467
aI126
aI543
aI467
aI173
aI175
aaa(lp4708
(lp4709
I537
aI526
aI363
aa(lp4710
I341
aI273
aI83
aI467
aI126
aI543
aI467
aI259
aI175
aaa(lp4711
(lp4712
I537
aI273
aI363
aa(lp4713
I298
aI467
aI173
aI289
aI259
aI62
aaa(lp4714
(lp4715
I273
aI537
aI363
aa(lp4716
I484
aI215
aI11
aI467
aI230
aI543
aI467
aI355
aI175
aaa(lp4717
(lp4718
I273
aI537
aI123
aa(lp4719
I484
aI215
aI11
aI467
aI230
aI543
aI467
aI173
aI175
aaa(lp4720
(lp4721
I455
aI537
aI123
aa(lp4722
I484
aI49
aI11
aI467
aI230
aI543
aI467
aI355
aI175
aaa(lp4723
(lp4724
I455
aI537
aI405
aa(lp4725
I484
aI146
aI11
aI467
aI230
aI543
aI467
aI259
aI175
aaa(lp4726
(lp4727
I594
aI202
aI531
aa(lp4728
I341
aI600
aI147
aaa(lp4729
(lp4730
I147
aI202
aI531
aa(lp4731
I484
aI15
aI11
aI467
aI126
aI543
aI467
aI355
aI175
aaa(lp4732
(lp4733
I147
aI202
aI133
aa(lp4734
I341
aI600
aI622
aaa(lp4735
(lp4736
I147
aI622
aI133
aa(lp4737
I413
aI467
aI158
aI543
aI0
aI62
aaa(lp4738
(lp4739
I133
aI622
aI147
aa(lp4740
I484
aI600
aI622
aI11
aI467
aI259
aI175
aaa(lp4741
(lp4742
I133
aI202
aI147
aa(lp4743
I484
aI147
aI239
aI11
aI467
aI259
aI175
aaa(lp4744
(lp4745
I133
aI500
aI147
aa(lp4746
I113
aI0
aaa(lp4747
(lp4748
I133
aI500
aI147
aa(lp4749
I484
aI500
aI11
aI467
aI259
aI175
aaa(lp4750
(lp4751
I133
aI0
aI147
aa(lp4752
I484
aI600
aI343
aI11
aI467
aI126
aI543
aI467
aI259
aI175
aaa(lp4753
(lp4754
I594
aI202
aI339
aa(lp4755
I484
aI545
aI11
aI467
aI126
aI543
aI467
aI259
aI175
aaa(lp4756
(lp4757
I594
aI503
aI339
aa(lp4758
I484
aI339
aI11
aI467
aI126
aI543
aI467
aI355
aI175
aaa(lp4759
(lp4760
I594
aI503
aI87
aa(lp4761
I484
aI541
aI11
aI467
aI126
aI543
aI467
aI259
aI175
aaa(lp4762
(lp4763
I594
aI0
aI87
aa(lp4764
I413
aI467
aI259
aI175
aaa(lp4765
(lp4766
I594
aI38
aI87
aa(lp4767
I0
aI0
aaa(lp4768
(lp4769
I594
aI38
aI87
aa(lp4770
I298
aI467
aI173
aI289
aI355
aI62
aaa(lp4771
(lp4772
I87
aI38
aI594
aa(lp4773
I484
aI545
aI11
aI467
aI126
aI543
aI467
aI355
aI175
aaa(lp4774
(lp4775
I87
aI38
aI279
aa(lp4776
I413
aI467
aI259
aI175
aaa(lp4777
(lp4778
I87
aI0
aI279
aa(lp4779
I413
aI467
aI355
aI175
aaa(lp4780
(lp4781
I594
aI202
aI210
aa(lp4782
I538
aI600
aI356
aI83
aI175
aI355
aaa(lp4783
(lp4784
I594
aI202
aI356
aa(lp4785
I538
aI600
aI147
aI83
aI175
aI173
aaa(lp4786
(lp4787
I147
aI202
aI356
aa(lp4788
I0
aI0
aI467
aI442
aaa(lp4789
(lp4790
I147
aI202
aI356
aa(lp4791
I0
aI0
aI467
aI442
aaa(lp4792
(lp4793
I147
aI202
aI356
aa(lp4794
I593
aI175
aI173
aaa(lp4795
(lp4796
I202
aI356
aa(lp4797
I13
aI62
aI173
aI289
aI259
aaa(lp4798
(lp4799
I356
aI202
aa(lp4800
I593
aI175
aI173
aaa(lp4801
(lp4802
I202
aa(lp4803
I484
aI418
aI11
aI467
aI230
aI543
aI175
aI173
aaa(lp4804
(lp4805
I51
aa(lp4806
I593
aI418
aI83
aI175
aI173
aaa(lp4807
(lp4808
I594
aI202
aI150
aa(lp4809
I278
aI467
aI259
aI175
aaa(lp4810
(lp4811
I594
aI21
aI150
aa(lp4812
I484
aI535
aI11
aI467
aI126
aI543
aI467
aI355
aI175
aaa(lp4813
(lp4814
I594
aI21
aI311
aa(lp4815
I13
aI467
aI355
aI259
aI62
aaa(lp4816
(lp4817
I594
aI311
aI21
aa(lp4818
I278
aI467
aI355
aI175
aaa(lp4819
(lp4820
I594
aI311
aI301
aa(lp4821
I278
aI467
aI259
aI175
aaa(lp4822
(lp4823
I594
aI529
aI301
aa(lp4824
I0
aI467
aI0
aI0
aI0
aI0
aaa(lp4825
(lp4826
I594
aI529
aI301
aa(lp4827
I484
aI199
aI11
aI467
aI126
aI543
aI467
aI259
aI175
aaa(lp4828
(lp4829
I594
aI448
aI301
aa(lp4830
I341
aI467
aI173
aI305
aI543
aI467
aI259
aI175
aaa(lp4831
(lp4832
I594
aI0
aI301
aa(lp4833
I13
aI467
aI173
aI259
aI62
aaa(lp4834
(lp4835
I594
aI202
aI150
aa(lp4836
I484
aI202
aI11
aI467
aI126
aI543
aI467
aI259
aI175
aaa(lp4837
(lp4838
I594
aI21
aI150
aa(lp4839
I484
aI535
aI11
aI467
aI126
aI543
aI467
aI355
aI175
aaa(lp4840
(lp4841
I594
aI21
aI311
aa(lp4842
I298
aI467
aI259
aI289
aI355
aI175
aaa(lp4843
(lp4844
I594
aI311
aI21
aa(lp4845
I484
aI21
aI11
aI467
aI126
aI543
aI467
aI355
aI175
aaa(lp4846
(lp4847
I594
aI311
aI301
aa(lp4848
I484
aI311
aI11
aI467
aI126
aI543
aI467
aI259
aI175
aaa(lp4849
(lp4850
I594
aI529
aI301
aa(lp4851
I0
aI0
aaa(lp4852
(lp4853
I594
aI529
aI301
aa(lp4854
I484
aI199
aI11
aI467
aI126
aI543
aI467
aI259
aI175
aaa(lp4855
(lp4856
I594
aI448
aI301
aa(lp4857
I341
aI375
aI83
aI467
aI230
aI543
aI467
aI259
aI175
aaa(lp4858
(lp4859
I594
aI0
aI301
aa(lp4860
I298
aI467
aI173
aI289
aI259
aI175
aaa(lp4861
(lp4862
I594
aI526
aI383
aa(lp4863
I278
aI175
aI173
aaa(lp4864
(lp4865
I116
aI526
aI383
aa(lp4866
I278
aI175
aI355
aaa(lp4867
(lp4868
I116
aI526
aI310
aa(lp4869
I484
aI152
aI11
aI467
aI196
aI543
aI355
aaa(lp4870
(lp4871
I116
aI526
aI32
aa(lp4872
I484
aI146
aI11
aI467
aI196
aI543
aI259
aaa(lp4873
(lp4874
I116
aI261
aI32
aa(lp4875
I298
aI173
aI289
aI355
aaa(lp4876
(lp4877
I32
aI261
aI116
aa(lp4878
I514
aaa(lp4879
(lp4880
I116
aI261
aI32
aa(lp4881
I514
aaa(lp4882
(lp4883
I32
aI261
aI116
aa(lp4884
I341
aI147
aaa(lp4885
(lp4886
I32
aI261
aI274
aa(lp4887
I484
aI146
aI467
aI196
aI543
aI259
aaa(lp4888
(lp4889
I594
aI2
aI612
aa(lp4890
I341
aI418
aI83
aI467
aI126
aI543
aI467
aI355
aI175
aaa(lp4891
(lp4892
I594
aI2
aI418
aa(lp4893
I298
aI467
aI173
aI289
aI259
aI175
aaa(lp4894
(lp4895
I2
aI594
aI418
aa(lp4896
I484
aI471
aI11
aI467
aI126
aI543
aI467
aI259
aI175
aaa(lp4897
(lp4898
I2
aI464
aI418
aa(lp4899
I298
aI467
aI173
aI289
aI355
aI175
aaa(lp4900
(lp4901
I418
aI464
aI2
aa(lp4902
I298
aI467
aI173
aI289
aI259
aI175
aaa(lp4903
(lp4904
I464
aI418
aI2
aa(lp4905
I484
aI2
aI11
aI467
aI126
aI543
aI467
aI355
aI175
aaa(lp4906
(lp4907
I464
aI418
aI60
aa(lp4908
I0
aI0
aaa(lp4909
(lp4910
I464
aI418
aI60
aa(lp4911
I484
aI81
aI11
aI467
aI230
aI543
aI467
aI355
aI175
aaa(lp4912
(lp4913
I464
aI418
aI414
aa(lp4914
I413
aI467
aI355
aI175
aaa(lp4915
(lp4916
I594
aI202
aI8
aa(lp4917
I484
aI604
aI11
aI467
aI196
aI543
aI175
aI355
aaa(lp4918
(lp4919
I594
aI202
aI391
aa(lp4920
I113
aI0
aaa(lp4921
(lp4922
I594
aI202
aI391
aa(lp4923
I341
aI147
aI83
aI175
aI173
aaa(lp4924
(lp4925
I147
aI202
aI391
aa(lp4926
I514
aaa(lp4927
(lp4928
I202
aI391
aa(lp4929
I484
aI502
aI11
aI467
aI196
aI543
aI175
aI355
aaa(lp4930
(lp4931
I202
aI307
aa(lp4932
I113
aI0
aaa(lp4933
(lp4934
I202
aI307
aa(lp4935
I278
aI175
aI173
aaa(lp4936
(lp4937
I21
aI307
aa(lp4938
I113
aI0
aaa(lp4939
(lp4940
I21
aI307
aa(lp4941
I341
aI505
aaa(lp4942
(lp4943
I594
aI202
aI584
aa(lp4944
I113
aI0
aaa(lp4945
(lp4946
I594
aI202
aI584
aa(lp4947
I341
aI147
aaa(lp4948
(lp4949
I147
aI202
aI584
aa(lp4950
I484
aI550
aI11
aI467
aI565
aI543
aI175
aI173
aaa(lp4951
(lp4952
I469
aI202
aI584
aa(lp4953
I484
aI292
aI11
aI467
aI565
aI543
aI173
aaa(lp4954
(lp4955
I475
aI202
aI584
aa(lp4956
I298
aI62
aI173
aI289
aI355
aaa(lp4957
(lp4958
I584
aI202
aI475
aa(lp4959
I113
aI0
aaa(lp4960
(lp4961
I584
aI202
aI475
aa(lp4962
I484
aI0
aI11
aI467
aI126
aI543
aI355
aaa(lp4963
(lp4964
I584
aI202
aI0
aa(lp4965
I278
aI259
aaa(lp4966
(lp4967
I584
aI21
aI0
aa(lp4968
I341
aI627
aaa(lp4969
(lp4970
I594
aI202
aI362
aa(lp4971
I0
aI467
aI0
aI0
aI0
aaa(lp4972
(lp4973
I594
aI508
aI362
aa(lp4974
I278
aI467
aI355
aI175
aaa(lp4975
(lp4976
I594
aI508
aI443
aa(lp4977
I13
aI467
aI173
aI289
aI355
aI62
aaa(lp4978
(lp4979
I443
aI508
aI594
aa(lp4980
I278
aI467
aI259
aI175
aaa(lp4981
(lp4982
I443
aI440
aI594
aa(lp4983
I484
aI147
aI11
aI467
aI355
aI175
aaa(lp4984
(lp4985
I443
aI440
aI274
aa(lp4986
I593
aI467
aI173
aI305
aI543
aI467
aI259
aI175
aaa(lp4987
(lp4988
I443
aI427
aI274
aa(lp4989
I484
aI37
aI606
aI467
aI565
aI543
aI467
aI355
aI175
aaa(lp4990
(lp4991
I443
aI427
aI155
aa(lp4992
I13
aI467
aI173
aI289
aI355
aI62
aaa(lp4993
(lp4994
I155
aI427
aI443
aa(lp4995
I278
aI467
aI173
aI175
aaa(lp4996
(lp4997
I594
aI202
aI362
aa(lp4998
I484
aI273
aI11
aI467
aI126
aI543
aI175
aI259
aaa(lp4999
(lp5000
I594
aI508
aI362
aa(lp5001
I484
aI362
aI11
aI175
aI355
aaa(lp5002
(lp5003
I594
aI508
aI443
aa(lp5004
I298
aI62
aI173
aI289
aI355
aaa(lp5005
(lp5006
I443
aI508
aI594
aa(lp5007
I484
aI508
aI11
aI175
aI259
aaa(lp5008
(lp5009
I443
aI440
aI594
aa(lp5010
I484
aI147
aI11
aI175
aI355
aaa(lp5011
(lp5012
I443
aI440
aI274
aa(lp5013
I341
aI600
aI622
aI83
aI467
aI230
aI543
aI175
aI259
aaa(lp5014
(lp5015
I443
aI427
aI274
aa(lp5016
I484
aI37
aI11
aI467
aI565
aI543
aI175
aI355
aaa(lp5017
(lp5018
I443
aI427
aI155
aa(lp5019
I298
aI62
aI173
aI289
aI355
aaa(lp5020
(lp5021
I155
aI427
aI443
aa(lp5022
I484
aI155
aI11
aI175
aI173
aaa(lp5023
(lp5024
I594
aI202
aI247
aa(lp5025
I278
aI467
aI173
aI175
aaa(lp5026
(lp5027
I116
aI202
aI247
aa(lp5028
I278
aI467
aI259
aI175
aaa(lp5029
(lp5030
I116
aI21
aI247
aa(lp5031
I0
aI467
aI0
aI0
aaa(lp5032
(lp5033
I116
aI21
aI247
aa(lp5034
I484
aI153
aI606
aI467
aI126
aI543
aI467
aI259
aI175
aaa(lp5035
(lp5036
I116
aI425
aI247
aa(lp5037
I484
aI0
aI606
aI467
aI565
aI543
aI467
aI442
aI175
aaa(lp5038
(lp5039
I116
aI114
aI247
aa(lp5040
I13
aI467
aI173
aI259
aI62
aaa(lp5041
(lp5042
I114
aI116
aI247
aa(lp5043
I0
aI467
aI0
aI0
aaa(lp5044
(lp5045
I114
aI116
aI247
aa(lp5046
I13
aI467
aI355
aI259
aI62
aaa(lp5047
(lp5048
I114
aI247
aI116
aa(lp5049
I593
aI153
aI83
aI467
aI173
aI175
aaa(lp5050
(lp5051
I594
aI202
aI247
aa(lp5052
I278
aI175
aI173
aaa(lp5053
(lp5054
I116
aI202
aI247
aa(lp5055
I538
aI202
aI83
aI175
aI259
aaa(lp5056
(lp5057
I116
aI21
aI247
aa(lp5058
I0
aI0
aI467
aI442
aaa(lp5059
(lp5060
I116
aI21
aI247
aa(lp5061
I484
aI153
aI11
aI467
aI126
aI543
aI175
aI259
aaa(lp5062
(lp5063
I116
aI425
aI247
aa(lp5064
I484
aI0
aI11
aI467
aI230
aI543
aI175
aI259
aaa(lp5065
(lp5066
I116
aI114
aI247
aa(lp5067
I13
aI62
aI173
aI289
aI259
aaa(lp5068
(lp5069
I114
aI116
aI247
aa(lp5070
I0
aI0
aI467
aI442
aaa(lp5071
(lp5072
I114
aI116
aI247
aa(lp5073
I13
aI62
aI259
aI289
aI355
aaa(lp5074
(lp5075
I114
aI247
aI116
aa(lp5076
I538
aI153
aI83
aI467
aI126
aI543
aI175
aI173
aaa(lp5077
(lp5078
I594
aI2
aI540
aa(lp5079
I484
aI273
aI606
aI467
aI230
aI543
aI467
aI355
aI175
aaa(lp5080
(lp5081
I594
aI2
aI70
aa(lp5082
I593
aI467
aI173
aI147
aaa(lp5083
(lp5084
I147
aI2
aI70
aa(lp5085
I225
aI467
aI0
aI67
aaa(lp5086
(lp5087
I594
aI2
aI70
aa(lp5088
I278
aI467
aI173
aI175
aaa(lp5089
(lp5090
I116
aI2
aI70
aa(lp5091
I484
aI333
aI11
aI467
aI126
aI543
aI467
aI173
aI175
aaa(lp5092
(lp5093
I314
aI2
aI70
aa(lp5094
I278
aI467
aI355
aI175
aaa(lp5095
(lp5096
I314
aI2
aI620
aa(lp5097
I484
aI65
aI11
aI467
aI126
aI543
aI467
aI259
aI175
aaa(lp5098
(lp5099
I314
aI63
aI620
aa(lp5100
I225
aI467
aI0
aI67
aaa(lp5101
(lp5102
I314
aI2
aI620
aa(lp5103
I13
aI467
aI355
aI259
aI62
aaa(lp5104
(lp5105
I594
aI526
aI312
aa(lp5106
I0
aI467
aI0
aI0
aaa(lp5107
(lp5108
I594
aI526
aI312
aa(lp5109
I514
aI467
aI0
aI67
aaa(lp5110
(lp5111
I594
aI526
aI312
aa(lp5112
I484
aI65
aI11
aI467
aI126
aaa(lp5113
(lp5114
I594
aI526
aI194
aa(lp5115
I593
aI467
aI173
aI305
aaa(lp5116
(lp5117
I147
aI526
aI194
aa(lp5118
I278
aI467
aI259
aI175
aaa(lp5119
(lp5120
I147
aI587
aI194
aa(lp5121
I278
aI467
aI173
aI175
aaa(lp5122
(lp5123
I594
aI587
aI194
aa(lp5124
I593
aI467
aI355
aI305
aaa(lp5125
(lp5126
I594
aI587
aI312
aa(lp5127
I0
aI467
aI0
aI0
aaa(lp5128
(lp5129
I594
aI587
aI312
aa(lp5130
I593
aI467
aI173
aI305
aaa(lp5131
(lp5132
I594
aI202
aI46
aa(lp5133
I484
aI0
aI11
aI467
aI126
aI543
aI175
aI259
aaa(lp5134
(lp5135
I594
aI0
aI46
aa(lp5136
I278
aI175
aI259
aaa(lp5137
(lp5138
I594
aI348
aI46
aa(lp5139
I538
aI147
aI591
aI83
aI467
aI126
aI543
aI175
aI259
aaa(lp5140
(lp5141
I594
aI218
aI46
aa(lp5142
I13
aI62
aI173
aI289
aI355
aaa(lp5143
(lp5144
I46
aI218
aI594
aa(lp5145
I278
aI175
aI173
aaa(lp5146
(lp5147
I130
aI218
aI594
aa(lp5148
I538
aI147
aI591
aI83
aI175
aI173
aaa(lp5149
(lp5150
I525
aI218
aI594
aa(lp5151
I13
aI62
aI173
aI289
aI259
aaa(lp5152
(lp5153
I218
aI525
aI594
aa(lp5154
I484
aI502
aI11
aI467
aI230
aI543
aI175
aI355
aaa(lp5155
(lp5156
I218
aI525
aI0
aa(lp5157
I484
aI493
aI11
aI467
aI126
aI543
aI175
aI259
aaa(lp5158
(lp5159
I594
aI143
aI574
aa(lp5160
I113
aI0
aaa(lp5161
(lp5162
I594
aI143
aI574
aa(lp5163
I13
aI467
aI173
aI289
aI259
aI175
aaa(lp5164
(lp5165
I143
aI594
aI574
aa(lp5166
I13
aI467
aI173
aI289
aI259
aI175
aaa(lp5167
(lp5168
I594
aI143
aI574
aa(lp5169
I13
aI467
aI259
aI289
aI355
aI175
aaa(lp5170
(lp5171
I594
aI574
aI143
aa(lp5172
I13
aI467
aI259
aI289
aI355
aI175
aaa(lp5173
(lp5174
I594
aI143
aI574
aa(lp5175
I113
aI0
aaa(lp5176
(lp5177
I594
aI143
aI574
aa(lp5178
I113
aI0
aaa(lp5179
(lp5180
I594
aI143
aI574
aa(lp5181
I484
aI574
aI11
aI467
aI355
aI175
aaa(lp5182
(lp5183
I594
aI143
aI209
aa(lp5184
I484
aI143
aI11
aI467
aI259
aI175
aaa(lp5185
(lp5186
I594
aI143
aI99
aa(lp5187
I298
aI467
aI173
aI289
aI259
aI62
aaa(lp5188
(lp5189
I143
aI594
aI99
aa(lp5190
I298
aI467
aI259
aI289
aI355
aI62
aaa(lp5191
(lp5192
I143
aI99
aI594
aa(lp5193
I0
aI0
aaa(lp5194
(lp5195
I143
aI99
aI594
aa(lp5196
I484
aI120
aI11
aI467
aI230
aI543
aI467
aI355
aI175
aaa(lp5197
(lp5198
I143
aI99
aI536
aa(lp5199
I298
aI467
aI173
aI289
aI259
aI62
aaa(lp5200
(lp5201
I99
aI143
aI536
aa(lp5202
I0
aI0
aaa(lp5203
(lp5204
I99
aI143
aI536
aa(lp5205
I484
aI99
aI11
aI467
aI230
aI543
aI467
aI173
aI175
aaa(lp5206
(lp5207
I132
aI143
aI536
aa(lp5208
I484
aI536
aI11
aI467
aI126
aI543
aI467
aI355
aI175
aaa(lp5209
(lp5210
I132
aI143
aI329
aa(lp5211
I484
aI272
aI11
aI467
aI230
aI543
aI467
aI173
aI175
aaa(lp5212
(lp5213
I594
aI143
aI312
aa(lp5214
I278
aI175
aI355
aaa(lp5215
(lp5216
I594
aI143
aI495
aa(lp5217
I484
aI576
aI11
aI467
aI196
aI543
aI355
aaa(lp5218
(lp5219
I594
aI143
aI513
aa(lp5220
I298
aI62
aI173
aI289
aI259
aaa(lp5221
(lp5222
I143
aI594
aI513
aa(lp5223
I484
aI366
aI11
aI467
aI126
aI543
aI173
aaa(lp5224
(lp5225
I169
aI594
aI513
aa(lp5226
I225
aaa(lp5227
(lp5228
I143
aI594
aI513
aa(lp5229
I341
aI147
aaa(lp5230
(lp5231
I143
aI147
aI513
aa(lp5232
I341
aI103
aaa(lp5233
(lp5234
I103
aI147
aI513
aa(lp5235
I298
aI259
aI289
aI355
aaa(lp5236
(lp5237
I103
aI513
aI147
aa(lp5238
I341
aI340
aaa(lp5239
(lp5240
I594
aI143
aI312
aa(lp5241
I278
aI175
aI355
aaa(lp5242
(lp5243
I594
aI143
aI495
aa(lp5244
I484
aI576
aI11
aI467
aI230
aI543
aI175
aI355
aaa(lp5245
(lp5246
I594
aI143
aI513
aa(lp5247
I13
aI62
aI173
aI289
aI259
aaa(lp5248
(lp5249
I143
aI594
aI513
aa(lp5250
I484
aI366
aI11
aI467
aI126
aI543
aI175
aI173
aaa(lp5251
(lp5252
I169
aI594
aI513
aa(lp5253
I538
aI366
aI83
aI175
aI173
aaa(lp5254
(lp5255
I143
aI594
aI513
aa(lp5256
I538
aI600
aI147
aI83
aI175
aI259
aaa(lp5257
(lp5258
I143
aI147
aI513
aa(lp5259
I538
aI600
aI103
aI83
aI175
aI173
aaa(lp5260
(lp5261
I103
aI147
aI513
aa(lp5262
I13
aI62
aI259
aI289
aI355
aaa(lp5263
(lp5264
I103
aI513
aI147
aa(lp5265
I538
aI340
aI83
aI175
aI259
aaa(lp5266
(lp5267
I594
aI143
aI178
aa(lp5268
I0
aI0
aI467
aI442
aaa(lp5269
(lp5270
I594
aI143
aI178
aa(lp5271
I13
aI62
aI173
aI289
aI259
aaa(lp5272
(lp5273
I143
aI594
aI178
aa(lp5274
I593
aI600
aI103
aI83
aI175
aI173
aaa(lp5275
(lp5276
I103
aI594
aI178
aa(lp5277
I13
aI62
aI259
aI289
aI355
aaa(lp5278
(lp5279
I103
aI178
aI594
aa(lp5280
I0
aI0
aI467
aI442
aaa(lp5281
(lp5282
I103
aI178
aI594
aa(lp5283
I484
aI174
aI11
aI467
aI126
aI543
aI467
aI259
aI175
aaa(lp5284
(lp5285
I103
aI106
aI594
aa(lp5286
I13
aI62
aI173
aI289
aI355
aaa(lp5287
(lp5288
I594
aI106
aI103
aa(lp5289
I484
aI0
aI11
aI467
aI126
aI543
aI467
aI259
aI175
aaa(lp5290
(lp5291
I594
aI0
aI103
aa(lp5292
I13
aI62
aI259
aI289
aI355
aaa(lp5293
(lp5294
I594
aI143
aI612
aa(lp5295
I484
aI103
aI11
aI467
aI196
aI543
aI175
aI355
aaa(lp5296
(lp5297
I594
aI143
aI377
aa(lp5298
I484
aI110
aI11
aI467
aI126
aI543
aI173
aaa(lp5299
(lp5300
I285
aI143
aI377
aa(lp5301
I298
aI62
aI173
aI289
aI259
aaa(lp5302
(lp5303
I143
aI285
aI377
aa(lp5304
I278
aI175
aI173
aaa(lp5305
(lp5306
I52
aI285
aI377
aa(lp5307
I298
aI259
aI289
aI355
aaa(lp5308
(lp5309
I52
aI377
aI285
aa(lp5310
I278
aI175
aI259
aaa(lp5311
(lp5312
I52
aI115
aI285
aa(lp5313
I278
aI175
aI173
aaa(lp5314
(lp5315
I436
aI115
aI285
aa(lp5316
I484
aI466
aI11
aI467
aI126
aI543
aI355
aaa(lp5317
(lp5318
I436
aI115
aI481
aa(lp5319
I484
aI375
aI11
aI467
aI126
aI543
aI259
aaa(lp5320
(lp5321
I594
aI2
aI540
aa(lp5322
I484
aI273
aI435
aI196
aI543
aI175
aI355
aaa(lp5323
(lp5324
I594
aI2
aI70
aa(lp5325
I341
aI147
aaa(lp5326
(lp5327
I147
aI2
aI70
aa(lp5328
I225
aaa(lp5329
(lp5330
I594
aI2
aI70
aa(lp5331
I278
aI175
aI173
aaa(lp5332
(lp5333
I116
aI2
aI70
aa(lp5334
I484
aI333
aI11
aI467
aI126
aI543
aI173
aaa(lp5335
(lp5336
I314
aI2
aI70
aa(lp5337
I278
aI175
aI355
aaa(lp5338
(lp5339
I314
aI2
aI620
aa(lp5340
I484
aI65
aI11
aI467
aI126
aI543
aI259
aaa(lp5341
(lp5342
I314
aI63
aI620
aa(lp5343
I225
aaa(lp5344
(lp5345
I314
aI2
aI620
aa(lp5346
I298
aI259
aI289
aI355
aaa(lp5347
(lp5348
I594
aI143
aI612
aa(lp5349
I484
aI103
aI11
aI467
aI230
aI543
aI467
aI355
aI175
aaa(lp5350
(lp5351
I594
aI143
aI377
aa(lp5352
I484
aI110
aI11
aI467
aI126
aI543
aI467
aI173
aI175
aaa(lp5353
(lp5354
I285
aI143
aI377
aa(lp5355
I298
aI467
aI173
aI289
aI259
aI62
aaa(lp5356
(lp5357
I143
aI285
aI377
aa(lp5358
I484
aI143
aI11
aI467
aI230
aI543
aI467
aI173
aI175
aaa(lp5359
(lp5360
I52
aI285
aI377
aa(lp5361
I298
aI467
aI259
aI289
aI355
aI62
aaa(lp5362
(lp5363
I52
aI377
aI285
aa(lp5364
I484
aI377
aI11
aI467
aI230
aI543
aI467
aI259
aI175
aaa(lp5365
(lp5366
I52
aI115
aI285
aa(lp5367
I484
aI52
aI11
aI467
aI230
aI543
aI467
aI173
aI175
aaa(lp5368
(lp5369
I436
aI115
aI285
aa(lp5370
I484
aI466
aI11
aI467
aI126
aI543
aI467
aI355
aI175
aaa(lp5371
(lp5372
I436
aI115
aI481
aa(lp5373
I484
aI375
aI11
aI467
aI126
aI543
aI467
aI259
aI175
aaa(lp5374
(lp5375
I594
aI143
aI540
aa(lp5376
I278
aI467
aI355
aI175
aaa(lp5377
(lp5378
I594
aI143
aI36
aa(lp5379
I13
aI467
aI173
aI259
aI62
aaa(lp5380
(lp5381
I143
aI594
aI36
aa(lp5382
I278
aI467
aI259
aI175
aaa(lp5383
(lp5384
I143
aI116
aI36
aa(lp5385
I484
aI409
aI11
aI467
aI230
aI543
aI467
aI173
aI175
aaa(lp5386
(lp5387
I197
aI116
aI36
aa(lp5388
I278
aI467
aI259
aI175
aaa(lp5389
(lp5390
I197
aI28
aI36
aa(lp5391
I593
aI467
aI173
aI305
aI543
aI467
aI173
aI175
aaa(lp5392
(lp5393
I156
aI28
aI36
aa(lp5394
I13
aI467
aI173
aI289
aI355
aI175
aaa(lp5395
(lp5396
I36
aI28
aI156
aa(lp5397
I278
aI467
aI355
aI175
aaa(lp5398
(lp5399
I36
aI28
aI330
aa(lp5400
I0
aI467
aI0
aI0
aaa(lp5401
(lp5402
I594
aI143
aI540
aa(lp5403
I278
aI175
aI355
aaa(lp5404
(lp5405
I594
aI143
aI36
aa(lp5406
I298
aI62
aI173
aI289
aI259
aaa(lp5407
(lp5408
I143
aI594
aI36
aa(lp5409
I278
aI175
aI259
aaa(lp5410
(lp5411
I143
aI116
aI36
aa(lp5412
I484
aI409
aI11
aI467
aI196
aI543
aI173
aaa(lp5413
(lp5414
I197
aI116
aI36
aa(lp5415
I278
aI175
aI259
aaa(lp5416
(lp5417
I197
aI28
aI36
aa(lp5418
I341
aI340
aaa(lp5419
(lp5420
I156
aI28
aI36
aa(lp5421
I298
aI173
aI289
aI355
aaa(lp5422
(lp5423
I36
aI28
aI156
aa(lp5424
I278
aI355
aaa(lp5425
(lp5426
I36
aI28
aI330
aa(lp5427
I113
aI0
aaa(lp5428
(lp5429
I594
aI143
aI540
aa(lp5430
I514
aI175
aI355
aaa(lp5431
(lp5432
I594
aI143
aI36
aa(lp5433
I13
aI175
aI173
aI289
aI259
aaa(lp5434
(lp5435
I143
aI594
aI36
aa(lp5436
I88
aI175
aI259
aaa(lp5437
(lp5438
I143
aI116
aI36
aa(lp5439
I484
aI409
aI11
aI467
aI196
aI543
aI175
aI173
aaa(lp5440
(lp5441
I197
aI116
aI36
aa(lp5442
I514
aI175
aI259
aaa(lp5443
(lp5444
I197
aI28
aI36
aa(lp5445
I341
aI340
aI83
aI175
aI173
aaa(lp5446
(lp5447
I156
aI28
aI36
aa(lp5448
I13
aI175
aI173
aI289
aI355
aaa(lp5449
(lp5450
I36
aI28
aI156
aa(lp5451
I514
aI175
aI355
aaa(lp5452
(lp5453
I36
aI28
aI330
aa(lp5454
I113
aI0
aaa(lp5455
(lp5456
I594
aI2
aI531
aa(lp5457
I341
aI232
aaa(lp5458
(lp5459
I594
aI232
aI531
aa(lp5460
I298
aI62
aI173
aI289
aI259
aaa(lp5461
(lp5462
I232
aI594
aI531
aa(lp5463
I484
aI59
aI11
aI467
aI196
aI543
aI259
aaa(lp5464
(lp5465
I232
aI608
aI531
aa(lp5466
I113
aI0
aaa(lp5467
(lp5468
I232
aI608
aI531
aa(lp5469
I341
aI175
aI173
aaa(lp5470
(lp5471
I608
aI531
aa(lp5472
I484
aI576
aI11
aI467
aI196
aI543
aI259
aaa(lp5473
(lp5474
I608
aI474
aa(lp5475
I341
aI466
aaa(lp5476
(lp5477
I84
aI474
aa(lp5478
I341
aI499
aaa(lp5479
(lp5480
I0
aI474
aa(lp5481
I484
aI110
aI11
aI467
aI196
aI543
aI259
aaa(lp5482
(lp5483
I594
aI526
aI612
aa(lp5484
I538
aI600
aI418
aI83
aI175
aI355
aaa(lp5485
(lp5486
I594
aI526
aI418
aa(lp5487
I484
aI214
aI11
aI467
aI230
aI543
aI175
aI259
aaa(lp5488
(lp5489
I594
aI518
aI418
aa(lp5490
I484
aI600
aI356
aI11
aI467
aI230
aI543
aI175
aI173
aaa(lp5491
(lp5492
I394
aI518
aI418
aa(lp5493
I484
aI359
aI11
aI467
aI126
aI543
aI175
aI173
aaa(lp5494
(lp5495
I390
aI518
aI418
aa(lp5496
I413
aI467
aI158
aI543
aI175
aI259
aaa(lp5497
(lp5498
I390
aI517
aI418
aa(lp5499
I13
aI62
aI173
aI289
aI355
aaa(lp5500
(lp5501
I418
aI517
aI390
aa(lp5502
I593
aI175
aI173
aaa(lp5503
(lp5504
I517
aI390
aa(lp5505
I13
aI62
aI173
aI289
aI259
aaa(lp5506
(lp5507
I390
aI517
aa(lp5508
I538
aI147
aI273
aI83
aI175
aI259
aaa(lp5509
(lp5510
I594
aI2
aI339
aa(lp5511
I484
aI600
aI463
aI11
aI467
aI126
aI543
aI175
aI355
aaa(lp5512
(lp5513
I594
aI2
aI138
aa(lp5514
I0
aI0
aI467
aI442
aaa(lp5515
(lp5516
I594
aI2
aI138
aa(lp5517
I278
aI175
aI259
aaa(lp5518
(lp5519
I594
aI60
aI138
aa(lp5520
I13
aI62
aI259
aI289
aI173
aaa(lp5521
(lp5522
I60
aI594
aI138
aa(lp5523
I0
aI0
aI467
aI442
aaa(lp5524
(lp5525
I60
aI594
aI138
aa(lp5526
I413
aI467
aI158
aI543
aI175
aI355
aaa(lp5527
(lp5528
I60
aI594
aI347
aa(lp5529
I13
aI62
aI173
aI289
aI355
aaa(lp5530
(lp5531
I347
aI594
aI60
aa(lp5532
I484
aI576
aI11
aI467
aI230
aI543
aI175
aI259
aaa(lp5533
(lp5534
I347
aI419
aI60
aa(lp5535
I413
aI467
aI158
aI543
aI175
aI259
aaa(lp5536
(lp5537
I594
aI2
aI210
aa(lp5538
I341
aI356
aaa(lp5539
(lp5540
I594
aI2
aI356
aa(lp5541
I484
aI334
aI11
aI467
aI196
aI543
aI175
aI259
aaa(lp5542
(lp5543
I594
aI249
aI356
aa(lp5544
I278
aI175
aI355
aaa(lp5545
(lp5546
I594
aI249
aI210
aa(lp5547
I278
aI175
aI259
aaa(lp5548
(lp5549
I594
aI567
aI210
aa(lp5550
I484
aI597
aI11
aI467
aI126
aI543
aI259
aaa(lp5551
(lp5552
I594
aI141
aI210
aa(lp5553
I298
aI173
aI289
aI259
aaa(lp5554
(lp5555
I141
aI594
aI210
aa(lp5556
I341
aI597
aaa(lp5557
(lp5558
I567
aI594
aI210
aa(lp5559
I278
aI175
aI259
aaa(lp5560
(lp5561
I567
aI116
aI210
aa(lp5562
I113
aI0
aaa(lp5563
(lp5564
I594
aI2
aI210
aa(lp5565
I341
aI467
aI259
aI356
aI83
aI467
aI355
aI175
aaa(lp5566
(lp5567
I594
aI2
aI356
aa(lp5568
I484
aI334
aI435
aI196
aI543
aI467
aI259
aI175
aaa(lp5569
(lp5570
I594
aI249
aI356
aa(lp5571
I185
aI467
aI356
aI11
aI467
aI126
aI543
aI467
aI355
aI175
aaa(lp5572
(lp5573
I594
aI249
aI210
aa(lp5574
I514
aI467
aI259
aI175
aaa(lp5575
(lp5576
I594
aI567
aI210
aa(lp5577
I484
aI600
aI597
aI606
aI467
aI126
aI543
aI467
aI259
aI175
aaa(lp5578
(lp5579
I594
aI141
aI210
aa(lp5580
I13
aI467
aI173
aI289
aI259
aI175
aaa(lp5581
(lp5582
I141
aI594
aI210
aa(lp5583
I341
aI467
aI597
aI606
aI467
aI126
aI543
aI467
aI173
aI175
aaa(lp5584
(lp5585
I567
aI594
aI210
aa(lp5586
I514
aI467
aI259
aI175
aaa(lp5587
(lp5588
I567
aI116
aI210
aa(lp5589
I0
aI0
aaa(lp5590
(lp5591
I594
aI2
aI150
aa(lp5592
I13
aI175
aI173
aI289
aI355
aaa(lp5593
(lp5594
I150
aI2
aI594
aa(lp5595
I113
aI0
aaa(lp5596
(lp5597
I150
aI2
aI594
aa(lp5598
I484
aI245
aI11
aI467
aI196
aI543
aI175
aI259
aaa(lp5599
(lp5600
I150
aI19
aI594
aa(lp5601
I13
aI175
aI259
aI289
aI173
aaa(lp5602
(lp5603
I19
aI150
aI594
aa(lp5604
I88
aI175
aI259
aaa(lp5605
(lp5606
I19
aI191
aI594
aa(lp5607
I341
aI600
aI147
aI83
aI175
aI355
aaa(lp5608
(lp5609
I19
aI191
aI147
aa(lp5610
I13
aI175
aI259
aI289
aI355
aaa(lp5611
(lp5612
I19
aI147
aI191
aa(lp5613
I13
aI175
aI173
aI289
aI259
aaa(lp5614
(lp5615
I147
aI19
aI191
aa(lp5616
I88
aI175
aI259
aaa(lp5617
(lp5618
I594
aI2
aI150
aa(lp5619
I13
aI62
aI173
aI289
aI355
aaa(lp5620
(lp5621
I150
aI2
aI594
aa(lp5622
I0
aI0
aI467
aI442
aaa(lp5623
(lp5624
I150
aI2
aI594
aa(lp5625
I484
aI245
aI11
aI175
aI259
aaa(lp5626
(lp5627
I150
aI19
aI594
aa(lp5628
I13
aI62
aI173
aI289
aI259
aaa(lp5629
(lp5630
I19
aI150
aI594
aa(lp5631
I278
aI175
aI259
aaa(lp5632
(lp5633
I19
aI191
aI594
aa(lp5634
I593
aI600
aI147
aI83
aI175
aI355
aaa(lp5635
(lp5636
I19
aI191
aI147
aa(lp5637
I13
aI62
aI259
aI289
aI355
aaa(lp5638
(lp5639
I19
aI147
aI191
aa(lp5640
I13
aI62
aI173
aI289
aI259
aaa(lp5641
(lp5642
I147
aI19
aI191
aa(lp5643
I278
aI175
aI259
aaa(lp5644
(lp5645
I594
aI2
aI584
aa(lp5646
I341
aI232
aI83
aI467
aI126
aI543
aI467
aI259
aI175
aaa(lp5647
(lp5648
I594
aI232
aI584
aa(lp5649
I298
aI467
aI259
aI289
aI355
aI175
aaa(lp5650
(lp5651
I594
aI584
aI232
aa(lp5652
I484
aI584
aI11
aI467
aI259
aI175
aaa(lp5653
(lp5654
I594
aI573
aI232
aa(lp5655
I484
aI0
aI11
aI467
aI230
aI543
aI467
aI259
aI175
aaa(lp5656
(lp5657
I594
aI0
aI232
aa(lp5658
I341
aI467
aI355
aI175
aaa(lp5659
(lp5660
I594
aI0
aa(lp5661
I341
aI375
aI83
aI467
aI230
aI543
aI467
aI259
aI175
aaa(lp5662
(lp5663
I594
aI457
aa(lp5664
I0
aI0
aaa(lp5665
(lp5666
I594
aI457
aa(lp5667
I341
aI627
aI83
aI467
aI126
aI543
aI467
aI259
aI175
aaa(lp5668
(lp5669
I594
aI223
aa(lp5670
I0
aI0
aaa(lp5671
(lp5672
I594
aI2
aI434
aa(lp5673
I298
aI62
aI173
aI289
aI259
aaa(lp5674
(lp5675
I2
aI594
aI434
aa(lp5676
I113
aI0
aaa(lp5677
(lp5678
I2
aI594
aI434
aa(lp5679
I298
aI259
aI289
aI355
aaa(lp5680
(lp5681
I2
aI434
aI594
aa(lp5682
I113
aI0
aaa(lp5683
(lp5684
I2
aI434
aI594
aa(lp5685
I278
aI175
aI173
aaa(lp5686
(lp5687
I60
aI434
aI594
aa(lp5688
I484
aI12
aI11
aI467
aI126
aI543
aI173
aaa(lp5689
(lp5690
I588
aI434
aI594
aa(lp5691
I298
aI173
aI289
aI259
aaa(lp5692
(lp5693
I434
aI588
aI594
aa(lp5694
I298
aI259
aI289
aI355
aaa(lp5695
(lp5696
I434
aI594
aI588
aa(lp5697
I514
aaa(lp5698
(lp5699
I594
aI2
aI434
aa(lp5700
I298
aI467
aI173
aI289
aI259
aI175
aaa(lp5701
(lp5702
I2
aI594
aI434
aa(lp5703
I0
aI0
aaa(lp5704
(lp5705
I2
aI594
aI434
aa(lp5706
I298
aI467
aI259
aI289
aI355
aI175
aaa(lp5707
(lp5708
I2
aI434
aI594
aa(lp5709
I0
aI0
aaa(lp5710
(lp5711
I2
aI434
aI594
aa(lp5712
I484
aI2
aI11
aI467
aI173
aI175
aaa(lp5713
(lp5714
I60
aI434
aI594
aa(lp5715
I484
aI12
aI11
aI467
aI126
aI543
aI467
aI173
aI175
aaa(lp5716
(lp5717
I588
aI434
aI594
aa(lp5718
I298
aI467
aI173
aI289
aI259
aI175
aaa(lp5719
(lp5720
I434
aI588
aI594
aa(lp5721
I298
aI467
aI259
aI289
aI355
aI175
aaa(lp5722
(lp5723
I434
aI594
aI588
aa(lp5724
I298
aI467
aI259
aI289
aI355
aI175
aaa(lp5725
(lp5726
I594
aI2
aI362
aa(lp5727
I341
aI239
aaa(lp5728
(lp5729
I594
aI2
aI239
aa(lp5730
I113
aI0
aaa(lp5731
(lp5732
I594
aI2
aI239
aa(lp5733
I341
aI239
aaa(lp5734
(lp5735
I594
aI2
aa(lp5736
I298
aI62
aI173
aI289
aI259
aaa(lp5737
(lp5738
I2
aI594
aa(lp5739
I225
aI467
aI355
aI67
aaa(lp5740
(lp5741
I594
aI2
aa(lp5742
I113
aI0
aaa(lp5743
(lp5744
I594
aI2
aa(lp5745
I484
aI49
aI11
aI467
aI196
aI543
aI259
aaa(lp5746
(lp5747
I594
aI432
aa(lp5748
I514
aI175
aI173
aaa(lp5749
(lp5750
I116
aI432
aa(lp5751
I298
aI173
aI289
aI259
aaa(lp5752
(lp5753
I594
aI2
aI362
aa(lp5754
I341
aI147
aI239
aI83
aI175
aI355
aaa(lp5755
(lp5756
I594
aI2
aI239
aa(lp5757
I113
aI0
aaa(lp5758
(lp5759
I594
aI2
aI239
aa(lp5760
I341
aI239
aI83
aI175
aI355
aaa(lp5761
(lp5762
I594
aI2
aa(lp5763
I13
aI175
aI173
aI289
aI259
aaa(lp5764
(lp5765
I2
aI594
aa(lp5766
I13
aI175
aI173
aI289
aI259
aaa(lp5767
(lp5768
I594
aI2
aa(lp5769
I113
aI0
aaa(lp5770
(lp5771
I594
aI2
aa(lp5772
I484
aI49
aI11
aI467
aI196
aI543
aI175
aI355
aaa(lp5773
(lp5774
I594
aI432
aa(lp5775
I514
aI175
aI173
aaa(lp5776
(lp5777
I116
aI432
aa(lp5778
I13
aI175
aI173
aI289
aI259
aaa(lp5779
(lp5780
I594
aI2
aI362
aa(lp5781
I538
aI147
aI239
aI83
aI175
aI355
aaa(lp5782
(lp5783
I594
aI2
aI239
aa(lp5784
I0
aI0
aI467
aI442
aaa(lp5785
(lp5786
I594
aI2
aI239
aa(lp5787
I593
aI175
aI355
aaa(lp5788
(lp5789
I594
aI2
aa(lp5790
I13
aI62
aI173
aI289
aI259
aaa(lp5791
(lp5792
I2
aI594
aa(lp5793
I13
aI62
aI173
aI289
aI259
aaa(lp5794
(lp5795
I594
aI2
aa(lp5796
I0
aI0
aI467
aI442
aaa(lp5797
(lp5798
I594
aI2
aa(lp5799
I484
aI49
aI11
aI467
aI230
aI543
aI175
aI259
aaa(lp5800
(lp5801
I594
aI432
aa(lp5802
I278
aI175
aI173
aaa(lp5803
(lp5804
I116
aI432
aa(lp5805
I13
aI62
aI173
aI289
aI259
aaa(lp5806
(lp5807
I594
aI2
aI462
aa(lp5808
I298
aI62
aI173
aI289
aI259
aaa(lp5809
(lp5810
I2
aI594
aI462
aa(lp5811
I341
aI147
aaa(lp5812
(lp5813
I2
aI147
aI462
aa(lp5814
I514
aaa(lp5815
(lp5816
I2
aI462
aa(lp5817
I341
aI466
aaa(lp5818
(lp5819
I2
aI466
aa(lp5820
I113
aI0
aaa(lp5821
(lp5822
I2
aI466
aa(lp5823
I341
aI466
aaa(lp5824
(lp5825
I232
aI466
aa(lp5826
I113
aI0
aaa(lp5827
(lp5828
I232
aI466
aa(lp5829
I484
aI502
aI11
aI467
aI196
aI543
aI175
aI259
aaa(lp5830
(lp5831
I232
aI498
aa(lp5832
I413
aI259
aaa(lp5833
(lp5834
I594
aI2
aI462
aa(lp5835
I13
aI175
aI173
aI289
aI259
aaa(lp5836
(lp5837
I2
aI594
aI462
aa(lp5838
I341
aI600
aI147
aI83
aI175
aI259
aaa(lp5839
(lp5840
I2
aI147
aI462
aa(lp5841
I341
aI600
aI147
aI83
aI175
aI259
aaa(lp5842
(lp5843
I2
aI462
aa(lp5844
I341
aI147
aI466
aI83
aI467
aI355
aI175
aaa(lp5845
(lp5846
I2
aI466
aa(lp5847
I113
aI0
aaa(lp5848
(lp5849
I2
aI466
aa(lp5850
I341
aI147
aI232
aI83
aI467
aI173
aI175
aaa(lp5851
(lp5852
I232
aI466
aa(lp5853
I113
aI0
aaa(lp5854
(lp5855
I232
aI466
aa(lp5856
I484
aI502
aI11
aI467
aI355
aI175
aaa(lp5857
(lp5858
I232
aI498
aa(lp5859
I413
aI467
aI355
aI175
aaa(lp5860
(lp5861
I594
aI2
aI462
aa(lp5862
I13
aI467
aI173
aI289
aI259
aI62
aaa(lp5863
(lp5864
I2
aI594
aI462
aa(lp5865
I300
aI354
aI600
aI147
aI83
aI175
aI259
aaa(lp5866
(lp5867
I2
aI147
aI462
aa(lp5868
I300
aI354
aI175
aI259
aaa(lp5869
(lp5870
I2
aI462
aa(lp5871
I300
aI354
aI147
aI466
aI83
aI175
aI355
aI0
aI175
aI0
aaa(lp5872
(lp5873
I2
aI466
aa(lp5874
I113
aI0
aaa(lp5875
(lp5876
I2
aI466
aa(lp5877
I300
aI147
aI232
aI83
aI175
aI173
aaa(lp5878
(lp5879
I232
aI466
aa(lp5880
I113
aI0
aaa(lp5881
(lp5882
I232
aI466
aa(lp5883
I595
aI502
aI11
aI175
aI259
aaa(lp5884
(lp5885
I232
aI498
aa(lp5886
I413
aI467
aI158
aI543
aI175
aI259
aI11
aI78
aaa(lp5887
(lp5888
I594
aI2
aI46
aa(lp5889
I298
aI467
aI173
aI289
aI259
aI62
aaa(lp5890
(lp5891
I2
aI594
aI46
aa(lp5892
I341
aI591
aI83
aI467
aI126
aI543
aI467
aI355
aI175
aaa(lp5893
(lp5894
I2
aI594
aI591
aa(lp5895
I341
aI232
aI83
aI467
aI126
aI543
aI467
aI173
aI175
aaa(lp5896
(lp5897
I232
aI594
aI591
aa(lp5898
I298
aI467
aI173
aI289
aI259
aI62
aaa(lp5899
(lp5900
I594
aI232
aI591
aa(lp5901
I484
aI232
aI11
aI467
aI196
aI543
aI467
aI259
aI175
aaa(lp5902
(lp5903
I594
aI2
aI591
aa(lp5904
I484
aI232
aI11
aI467
aI126
aI543
aI467
aI355
aI175
aaa(lp5905
(lp5906
I594
aI2
aI43
aa(lp5907
I341
aI232
aI83
aI467
aI126
aI543
aI467
aI259
aI175
aaa(lp5908
(lp5909
I594
aI232
aI43
aa(lp5910
I341
aI147
aI83
aI467
aI126
aI543
aI467
aI173
aI175
aaa(lp5911
(lp5912
I147
aI232
aI43
aa(lp5913
I298
aI467
aI173
aI289
aI355
aI62
aaa(lp5914
(lp5915
I594
aI526
aI540
aa(lp5916
I113
aI0
aaa(lp5917
(lp5918
I594
aI526
aI540
aa(lp5919
I514
aI175
aI259
aaa(lp5920
(lp5921
I594
aI587
aI540
aa(lp5922
I484
aI104
aI11
aI467
aI126
aI543
aI259
aaa(lp5923
(lp5924
I594
aI22
aI540
aa(lp5925
I341
aI597
aaa(lp5926
(lp5927
I594
aI0
aI540
aa(lp5928
I298
aI173
aI289
aI355
aaa(lp5929
(lp5930
I540
aI0
aI594
aa(lp5931
I113
aI0
aaa(lp5932
(lp5933
I540
aI0
aI594
aa(lp5934
I413
aI175
aI259
aaa(lp5935
(lp5936
I540
aI85
aI594
aa(lp5937
I514
aI175
aI355
aaa(lp5938
(lp5939
I540
aI85
aI116
aa(lp5940
I484
aI49
aI11
aI467
aI196
aI543
aI355
aaa(lp5941
(lp5942
I594
aI574
aI363
aa(lp5943
I0
aI0
aaa(lp5944
(lp5945
I594
aI574
aI363
aa(lp5946
I298
aI467
aI173
aI289
aI259
aI175
aaa(lp5947
(lp5948
I574
aI594
aI363
aa(lp5949
I484
aI574
aI11
aI467
aI230
aI543
aI467
aI173
aI175
aaa(lp5950
(lp5951
I209
aI594
aI363
aa(lp5952
I484
aI9
aI11
aI467
aI230
aI543
aI467
aI355
aI175
aaa(lp5953
(lp5954
I209
aI594
aI397
aa(lp5955
I298
aI467
aI173
aI289
aI259
aI175
aaa(lp5956
(lp5957
I594
aI209
aI397
aa(lp5958
I0
aI0
aaa(lp5959
(lp5960
I594
aI209
aI397
aa(lp5961
I413
aI467
aI355
aI175
aaa(lp5962
(lp5963
I594
aI209
aI553
aa(lp5964
I484
aI181
aI11
aI467
aI126
aI543
aI467
aI355
aI175
aaa(lp5965
(lp5966
I594
aI209
aI459
aa(lp5967
I298
aI467
aI173
aI289
aI355
aI175
aaa(lp5968
(lp5969
I594
aI574
aI312
aa(lp5970
I484
aI183
aI11
aI467
aI196
aI543
aI175
aI259
aaa(lp5971
(lp5972
I594
aI31
aI312
aa(lp5973
I413
aI175
aI259
aaa(lp5974
(lp5975
I594
aI39
aI312
aa(lp5976
I341
aI627
aaa(lp5977
(lp5978
I594
aI64
aI312
aa(lp5979
I298
aI173
aI289
aI355
aaa(lp5980
(lp5981
I312
aI64
aI594
aa(lp5982
I484
aI602
aI11
aI467
aI196
aI543
aI355
aaa(lp5983
(lp5984
I312
aI64
aI86
aa(lp5985
I298
aI173
aI289
aI355
aaa(lp5986
(lp5987
I86
aI64
aI312
aa(lp5988
I484
aI334
aI11
aI467
aI196
aI543
aI259
aaa(lp5989
(lp5990
I86
aI299
aI312
aa(lp5991
I298
aI259
aI289
aI355
aaa(lp5992
(lp5993
I86
aI312
aI299
aa(lp5994
I298
aI173
aI289
aI355
aaa(lp5995
(lp5996
I594
aI143
aI339
aa(lp5997
I0
aI467
aI0
aI543
aI467
aI0
aI289
aI0
aaa(lp5998
(lp5999
I594
aI339
aI143
aa(lp6000
I0
aI0
aaa(lp6001
(lp6002
I594
aI339
aI143
aa(lp6003
I0
aI173
aI103
aaa(lp6004
(lp6005
I594
aI339
aI103
aa(lp6006
I0
aI600
aI147
aI11
aI467
aI175
aI543
aI603
aaa(lp6007
(lp6008
I116
aI339
aI103
aa(lp6009
I0
aI0
aaa(lp6010
(lp6011
I116
aI339
aI103
aa(lp6012
I0
aI0
aaa(lp6013
(lp6014
I116
aI339
aI103
aa(lp6015
I0
aI0
aI543
aI467
aI603
aI289
aI467
aI103
aaa(lp6016
(lp6017
I103
aI339
aI116
aa(lp6018
I0
aI0
aI543
aI467
aI0
aI289
aI467
aI103
aaa(lp6019
(lp6020
I339
aI103
aI116
aa(lp6021
I0
aI0
aaa(lp6022
(lp6023
I594
aI574
aI312
aa(lp6024
I484
aI183
aI11
aI467
aI230
aI543
aI467
aI259
aI175
aaa(lp6025
(lp6026
I594
aI31
aI312
aa(lp6027
I413
aI467
aI259
aI175
aaa(lp6028
(lp6029
I594
aI39
aI312
aa(lp6030
I341
aI627
aI83
aI467
aI126
aI543
aI467
aI259
aI175
aaa(lp6031
(lp6032
I594
aI64
aI312
aa(lp6033
I298
aI467
aI173
aI289
aI355
aI62
aaa(lp6034
(lp6035
I312
aI64
aI594
aa(lp6036
I484
aI602
aI11
aI467
aI230
aI543
aI467
aI355
aI175
aaa(lp6037
(lp6038
I312
aI64
aI86
aa(lp6039
I298
aI467
aI173
aI289
aI355
aI175
aaa(lp6040
(lp6041
I86
aI64
aI312
aa(lp6042
I484
aI334
aI11
aI467
aI230
aI543
aI467
aI259
aI175
aaa(lp6043
(lp6044
I86
aI299
aI312
aa(lp6045
I298
aI467
aI259
aI289
aI355
aI62
aaa(lp6046
(lp6047
I86
aI312
aI299
aa(lp6048
I298
aI467
aI173
aI289
aI355
aI62
aaa(lp6049
(lp6050
I594
aI574
aI178
aa(lp6051
I0
aI0
aI11
aI0
aI67
aaa(lp6052
(lp6053
I594
aI574
aI178
aa(lp6054
I484
aI178
aI11
aI467
aI126
aI543
aI467
aI355
aI175
aaa(lp6055
(lp6056
I594
aI574
aI411
aa(lp6057
I341
aI340
aI83
aI467
aI126
aI543
aI467
aI259
aI175
aaa(lp6058
(lp6059
I594
aI340
aI411
aa(lp6060
I484
aI411
aI11
aI467
aI126
aI543
aI467
aI355
aI175
aaa(lp6061
(lp6062
I594
aI340
aI211
aa(lp6063
I0
aI0
aI11
aI0
aI67
aaa(lp6064
(lp6065
I594
aI340
aI211
aa(lp6066
I484
aI375
aI11
aI467
aI196
aI543
aI467
aI173
aI175
aaa(lp6067
(lp6068
I293
aI340
aI211
aa(lp6069
I0
aI0
aI11
aI0
aI67
aaa(lp6070
(lp6071
I293
aI340
aI211
aa(lp6072
I298
aI467
aI173
aI289
aI355
aI62
aaa(lp6073
(lp6074
I211
aI340
aI293
aa(lp6075
I341
aI198
aI83
aI467
aI126
aI543
aI467
aI173
aI175
aaa(lp6076
(lp6077
I594
aI574
aI104
aa(lp6078
I341
aI340
aaa(lp6079
(lp6080
I594
aI340
aI104
aa(lp6081
I278
aI175
aI173
aaa(lp6082
(lp6083
I116
aI340
aI104
aa(lp6084
I514
aaa(lp6085
(lp6086
I28
aI340
aI104
aa(lp6087
I341
aI597
aaa(lp6088
(lp6089
I28
aI340
aI104
aa(lp6090
I278
aI175
aI259
aaa(lp6091
(lp6092
I28
aI574
aI104
aa(lp6093
I514
aaa(lp6094
(lp6095
I28
aI209
aI104
aa(lp6096
I278
aI355
aaa(lp6097
(lp6098
I28
aI209
aI267
aa(lp6099
I484
aI380
aI11
aI467
aI196
aI543
aI175
aI355
aaa(lp6100
(lp6101
I28
aI209
aI142
aa(lp6102
I113
aI0
aaa(lp6103
(lp6104
I594
aI574
aI104
aa(lp6105
I341
aI600
aI340
aI83
aI467
aI259
aI175
aaa(lp6106
(lp6107
I594
aI340
aI104
aa(lp6108
I278
aI467
aI173
aI175
aaa(lp6109
(lp6110
I116
aI340
aI104
aa(lp6111
I514
aI467
aI355
aI609
aaa(lp6112
(lp6113
I28
aI340
aI104
aa(lp6114
I113
aI0
aaa(lp6115
(lp6116
I28
aI340
aI104
aa(lp6117
I278
aI467
aI259
aI175
aaa(lp6118
(lp6119
I28
aI574
aI104
aa(lp6120
I514
aI467
aI355
aI67
aaa(lp6121
(lp6122
I28
aI209
aI104
aa(lp6123
I278
aI467
aI355
aI175
aaa(lp6124
(lp6125
I28
aI209
aI267
aa(lp6126
I484
aI380
aI11
aI467
aI196
aI543
aI467
aI355
aI175
aaa(lp6127
(lp6128
I28
aI209
aI142
aa(lp6129
I113
aI0
aaa(lp6130
(lp6131
I594
aI574
aI612
aa(lp6132
I0
aI467
aI0
aI0
aaa(lp6133
(lp6134
I594
aI574
aI612
aa(lp6135
I0
aI467
aI0
aI0
aaa(lp6136
(lp6137
I594
aI574
aI612
aa(lp6138
I593
aI418
aI83
aI467
aI355
aI175
aaa(lp6139
(lp6140
I594
aI574
aI418
aa(lp6141
I514
aI467
aI0
aI67
aaa(lp6142
(lp6143
I594
aI574
aa(lp6144
I278
aI467
aI259
aI175
aaa(lp6145
(lp6146
I594
aI209
aa(lp6147
I13
aI467
aI259
aI62
aaa(lp6148
(lp6149
I209
aI594
aa(lp6150
I514
aI467
aI0
aI67
aaa(lp6151
(lp6152
I594
aI209
aa(lp6153
I0
aI467
aI0
aI0
aaa(lp6154
(lp6155
I594
aI209
aa(lp6156
I0
aI259
aI175
aI157
aaa(lp6157
(lp6158
I594
aI574
aI540
aa(lp6159
I0
aI0
aI467
aI442
aaa(lp6160
(lp6161
I594
aI574
aI540
aa(lp6162
I13
aI62
aI173
aI289
aI355
aaa(lp6163
(lp6164
I574
aI594
aI540
aa(lp6165
I13
aI62
aI173
aI289
aI355
aaa(lp6166
(lp6167
I540
aI594
aI574
aa(lp6168
I593
aI600
aI545
aI83
aI175
aI173
aaa(lp6169
(lp6170
I545
aI594
aI574
aa(lp6171
I593
aI600
aI340
aI83
aI175
aI355
aaa(lp6172
(lp6173
I545
aI594
aI340
aa(lp6174
I13
aI62
aI173
aI289
aI355
aaa(lp6175
(lp6176
I340
aI594
aI545
aa(lp6177
I593
aI175
aI173
aaa(lp6178
(lp6179
I594
aI545
aa(lp6180
I278
aI175
aI259
aaa(lp6181
(lp6182
I594
aI540
aa(lp6183
I538
aI600
aI147
aI83
aI175
aI173
aaa(lp6184
(lp6185
I594
aI143
aI210
aa(lp6186
I341
aI147
aaa(lp6187
(lp6188
I147
aI143
aI210
aa(lp6189
I484
aI1
aI435
aI196
aI543
aI175
aI355
aaa(lp6190
(lp6191
I147
aI143
aI598
aa(lp6192
I484
aI216
aI11
aI467
aI126
aI543
aI175
aI259
aaa(lp6193
(lp6194
I147
aI224
aI598
aa(lp6195
I298
aI173
aI289
aI259
aaa(lp6196
(lp6197
I224
aI147
aI598
aa(lp6198
I298
aI173
aI289
aI355
aaa(lp6199
(lp6200
I598
aI147
aI224
aa(lp6201
I341
aI232
aaa(lp6202
(lp6203
I350
aI147
aI224
aa(lp6204
I341
aI103
aaa(lp6205
(lp6206
I350
aI147
aI392
aa(lp6207
I298
aI173
aI289
aI355
aaa(lp6208
(lp6209
I392
aI147
aI350
aa(lp6210
I113
aI0
aaa(lp6211
(lp6212
I594
aI574
aI531
aa(lp6213
I0
aI467
aI0
aI0
aaa(lp6214
(lp6215
I594
aI574
aI531
aa(lp6216
I13
aI467
aI173
aI289
aI355
aI62
aaa(lp6217
(lp6218
I531
aI574
aI594
aa(lp6219
I0
aI467
aI0
aI0
aaa(lp6220
(lp6221
I531
aI574
aI594
aa(lp6222
I13
aI467
aI173
aI289
aI355
aI62
aaa(lp6223
(lp6224
I594
aI574
aI531
aa(lp6225
I278
aI467
aI173
aI175
aaa(lp6226
(lp6227
I116
aI574
aI531
aa(lp6228
I484
aI366
aI11
aI467
aI565
aI543
aI467
aI355
aI175
aaa(lp6229
(lp6230
I116
aI574
aI629
aa(lp6231
I13
aI467
aI355
aI259
aI62
aaa(lp6232
(lp6233
I116
aI629
aI574
aa(lp6234
I13
aI467
aI173
aI289
aI355
aI62
aaa(lp6235
(lp6236
I574
aI629
aI116
aa(lp6237
I278
aI467
aI259
aI175
aaa(lp6238
(lp6239
I594
aI574
aI531
aa(lp6240
I0
aI0
aI467
aI442
aaa(lp6241
(lp6242
I594
aI574
aI531
aa(lp6243
I13
aI62
aI173
aI289
aI355
aaa(lp6244
(lp6245
I531
aI574
aI594
aa(lp6246
I0
aI0
aI467
aI442
aaa(lp6247
(lp6248
I531
aI574
aI594
aa(lp6249
I13
aI62
aI173
aI289
aI355
aaa(lp6250
(lp6251
I594
aI574
aI531
aa(lp6252
I278
aI175
aI173
aaa(lp6253
(lp6254
I116
aI574
aI531
aa(lp6255
I484
aI366
aI11
aI467
aI230
aI543
aI175
aI355
aaa(lp6256
(lp6257
I116
aI574
aI629
aa(lp6258
I13
aI62
aI259
aI289
aI355
aaa(lp6259
(lp6260
I116
aI629
aI574
aa(lp6261
I13
aI62
aI173
aI289
aI355
aaa(lp6262
(lp6263
I574
aI629
aI116
aa(lp6264
I278
aI175
aI259
aaa(lp6265
(lp6266
I594
aI574
aI339
aa(lp6267
I0
aI0
aI11
aI0
aI67
aaa(lp6268
(lp6269
I594
aI574
aI339
aa(lp6270
I484
aI574
aI11
aI467
aI126
aI543
aI467
aI259
aI175
aaa(lp6271
(lp6272
I594
aI209
aI339
aa(lp6273
I0
aI0
aI11
aI0
aI67
aaa(lp6274
(lp6275
I594
aI209
aI339
aa(lp6276
I0
aI0
aI11
aI0
aI67
aaa(lp6277
(lp6278
I594
aI209
aI339
aa(lp6279
I484
aI339
aI11
aI467
aI126
aI543
aI467
aI355
aI175
aaa(lp6280
(lp6281
I594
aI209
aI87
aa(lp6282
I484
aI87
aI11
aI467
aI126
aI543
aI467
aI355
aI175
aaa(lp6283
(lp6284
I594
aI209
aI160
aa(lp6285
I0
aI0
aI11
aI0
aI67
aaa(lp6286
(lp6287
I594
aI209
aI160
aa(lp6288
I341
aI340
aI83
aI467
aI126
aI543
aI467
aI259
aI175
aaa(lp6289
(lp6290
I594
aI121
aI160
aa(lp6291
I298
aI467
aI173
aI289
aI355
aI62
aaa(lp6292
(lp6293
I594
aI574
aI339
aa(lp6294
I0
aI0
aI467
aI442
aaa(lp6295
(lp6296
I594
aI574
aI339
aa(lp6297
I278
aI175
aI259
aaa(lp6298
(lp6299
I594
aI209
aI339
aa(lp6300
I0
aI0
aI467
aI442
aaa(lp6301
(lp6302
I594
aI209
aI339
aa(lp6303
I0
aI0
aI467
aI442
aaa(lp6304
(lp6305
I594
aI209
aI339
aa(lp6306
I278
aI175
aI355
aaa(lp6307
(lp6308
I594
aI209
aI87
aa(lp6309
I278
aI175
aI355
aaa(lp6310
(lp6311
I594
aI209
aI160
aa(lp6312
I0
aI0
aI467
aI442
aaa(lp6313
(lp6314
I594
aI209
aI160
aa(lp6315
I538
aI600
aI340
aI83
aI175
aI259
aaa(lp6316
(lp6317
I594
aI121
aI160
aa(lp6318
I13
aI62
aI173
aI289
aI355
aaa(lp6319
(lp6320
I594
aI574
aI210
aa(lp6321
I538
aI600
aI356
aI83
aI175
aI355
aaa(lp6322
(lp6323
I594
aI574
aI356
aa(lp6324
I13
aI62
aI259
aI289
aI355
aaa(lp6325
(lp6326
I594
aI356
aI574
aa(lp6327
I278
aI175
aI259
aaa(lp6328
(lp6329
I594
aI210
aI574
aa(lp6330
I13
aI62
aI173
aI289
aI259
aaa(lp6331
(lp6332
I210
aI594
aI574
aa(lp6333
I484
aI0
aI11
aI467
aI230
aI543
aI175
aI173
aaa(lp6334
(lp6335
I41
aI594
aI574
aa(lp6336
I0
aI0
aI467
aI442
aaa(lp6337
(lp6338
I41
aI594
aI574
aa(lp6339
I13
aI62
aI173
aI289
aI355
aaa(lp6340
(lp6341
I574
aI594
aI41
aa(lp6342
I13
aI62
aI173
aI289
aI259
aaa(lp6343
(lp6344
I594
aI574
aI41
aa(lp6345
I278
aI175
aI259
aaa(lp6346
(lp6347
I594
aI526
aI531
aa(lp6348
I484
aI447
aI11
aI467
aI126
aI543
aI175
aI355
aaa(lp6349
(lp6350
I594
aI526
aI231
aa(lp6351
I13
aI467
aI173
aI289
aI355
aI175
aaa(lp6352
(lp6353
I231
aI526
aI594
aa(lp6354
I514
aI467
aI259
aI175
aaa(lp6355
(lp6356
I231
aI587
aI594
aa(lp6357
I13
aI467
aI259
aI289
aI355
aI175
aaa(lp6358
(lp6359
I231
aI594
aI587
aa(lp6360
I514
aI467
aI355
aI175
aaa(lp6361
(lp6362
I231
aI594
aI77
aa(lp6363
I484
aI317
aI11
aI467
aI126
aI543
aI467
aI355
aI175
aaa(lp6364
(lp6365
I231
aI594
aI212
aa(lp6366
I88
aI467
aI259
aI175
aaa(lp6367
(lp6368
I231
aI116
aI212
aa(lp6369
I341
aI600
aI147
aI83
aI467
aI259
aI175
aaa(lp6370
(lp6371
I231
aI274
aI212
aa(lp6372
I113
aI0
aaa(lp6373
(lp6374
I594
aI574
aI150
aa(lp6375
I0
aI0
aaa(lp6376
(lp6377
I594
aI574
aI150
aa(lp6378
I298
aI467
aI173
aI289
aI259
aI62
aaa(lp6379
(lp6380
I574
aI594
aI150
aa(lp6381
I484
aI599
aI11
aI467
aI230
aI543
aI467
aI173
aI62
aaa(lp6382
(lp6383
I255
aI594
aI150
aa(lp6384
I484
aI375
aI11
aI467
aI126
aI543
aI467
aI259
aI175
aaa(lp6385
(lp6386
I255
aI286
aI150
aa(lp6387
I413
aI467
aI259
aI175
aaa(lp6388
(lp6389
I255
aI293
aI150
aa(lp6390
I298
aI467
aI259
aI289
aI355
aI62
aaa(lp6391
(lp6392
I255
aI150
aI293
aa(lp6393
I298
aI467
aI259
aI289
aI355
aI62
aaa(lp6394
(lp6395
I255
aI293
aI150
aa(lp6396
I484
aI150
aI11
aI467
aI126
aI543
aI467
aI355
aI175
aaa(lp6397
(lp6398
I255
aI293
aI191
aa(lp6399
I0
aI0
aaa(lp6400
(lp6401
I594
aI574
aI8
aa(lp6402
I298
aI62
aI173
aI289
aI259
aaa(lp6403
(lp6404
I594
aI8
aI574
aa(lp6405
I278
aI173
aaa(lp6406
(lp6407
I116
aI8
aI574
aa(lp6408
I113
aI0
aaa(lp6409
(lp6410
I116
aI8
aI574
aa(lp6411
I278
aI355
aaa(lp6412
(lp6413
I116
aI8
aI209
aa(lp6414
I298
aI259
aI289
aI355
aaa(lp6415
(lp6416
I116
aI209
aI8
aa(lp6417
I278
aI259
aaa(lp6418
(lp6419
I116
aI189
aI8
aa(lp6420
I298
aI259
aI289
aI355
aaa(lp6421
(lp6422
I116
aI8
aI189
aa(lp6423
I298
aI173
aI289
aI259
aaa(lp6424
(lp6425
I8
aI116
aI189
aa(lp6426
I484
aI263
aI11
aI467
aI126
aI543
aI175
aI259
aaa(lp6427
(lp6428
I594
aI143
aI210
aa(lp6429
I341
aI147
aI83
aI467
aI126
aI543
aI467
aI173
aI175
aaa(lp6430
(lp6431
I147
aI143
aI210
aa(lp6432
I484
aI1
aI11
aI467
aI230
aI543
aI467
aI355
aI175
aaa(lp6433
(lp6434
I147
aI143
aI598
aa(lp6435
I484
aI216
aI11
aI467
aI126
aI543
aI467
aI259
aI175
aaa(lp6436
(lp6437
I147
aI224
aI598
aa(lp6438
I298
aI467
aI173
aI289
aI259
aI62
aaa(lp6439
(lp6440
I224
aI147
aI598
aa(lp6441
I298
aI467
aI173
aI289
aI355
aI62
aaa(lp6442
(lp6443
I598
aI147
aI224
aa(lp6444
I341
aI232
aI83
aI467
aI173
aI175
aaa(lp6445
(lp6446
I350
aI147
aI224
aa(lp6447
I341
aI103
aI83
aI467
aI230
aI543
aI467
aI355
aI175
aaa(lp6448
(lp6449
I350
aI147
aI392
aa(lp6450
I298
aI467
aI173
aI289
aI355
aI62
aaa(lp6451
(lp6452
I392
aI147
aI350
aa(lp6453
I0
aI0
aaa(lp6454
(lp6455
I594
aI574
aI8
aa(lp6456
I13
aI175
aI259
aI289
aI355
aaa(lp6457
(lp6458
I594
aI8
aI574
aa(lp6459
I514
aI175
aI173
aaa(lp6460
(lp6461
I116
aI8
aI574
aa(lp6462
I113
aI0
aaa(lp6463
(lp6464
I116
aI8
aI574
aa(lp6465
I514
aI175
aI355
aaa(lp6466
(lp6467
I116
aI8
aI209
aa(lp6468
I13
aI175
aI259
aI289
aI355
aaa(lp6469
(lp6470
I116
aI209
aI8
aa(lp6471
I514
aI175
aI259
aaa(lp6472
(lp6473
I116
aI189
aI8
aa(lp6474
I13
aI175
aI259
aI289
aI355
aaa(lp6475
(lp6476
I116
aI8
aI189
aa(lp6477
I13
aI175
aI173
aI289
aI259
aaa(lp6478
(lp6479
I8
aI116
aI189
aa(lp6480
I484
aI263
aI11
aI467
aI126
aI543
aI175
aI259
aaa(lp6481
(lp6482
I594
aI574
aI584
aa(lp6483
I13
aI467
aI173
aI289
aI355
aI62
aaa(lp6484
(lp6485
I584
aI574
aI594
aa(lp6486
I593
aI467
aI355
aI305
aI543
aI467
aI355
aI175
aaa(lp6487
(lp6488
I584
aI574
aI147
aa(lp6489
I113
aI467
aI442
aI207
aI11
aI467
aI259
aI175
aaa(lp6490
(lp6491
I584
aI340
aI147
aa(lp6492
I0
aI467
aI0
aI0
aaa(lp6493
(lp6494
I584
aI340
aI147
aa(lp6495
I278
aI467
aI355
aI175
aaa(lp6496
(lp6497
I584
aI340
aI594
aa(lp6498
I225
aI467
aI0
aI67
aaa(lp6499
(lp6500
I584
aI340
aI147
aa(lp6501
I278
aI467
aI355
aI175
aaa(lp6502
(lp6503
I584
aI340
aI594
aa(lp6504
I484
aI157
aI11
aI467
aI126
aI543
aI467
aI355
aI175
aaa(lp6505
(lp6506
I584
aI340
aI0
aa(lp6507
I278
aI467
aI259
aI175
aaa(lp6508
(lp6509
I594
aI574
aI362
aa(lp6510
I484
aI251
aI11
aI467
aI126
aI543
aI467
aI355
aI175
aaa(lp6511
(lp6512
I594
aI574
aI270
aa(lp6513
I113
aI0
aaa(lp6514
(lp6515
I594
aI574
aI270
aa(lp6516
I341
aI600
aI340
aaa(lp6517
(lp6518
I594
aI340
aI270
aa(lp6519
I413
aI467
aI554
aI435
aI467
aI355
aI175
aaa(lp6520
(lp6521
I594
aI340
aI119
aa(lp6522
I113
aI0
aaa(lp6523
(lp6524
I594
aI340
aI119
aa(lp6525
I484
aI119
aI242
aI467
aI126
aI543
aI467
aI355
aI175
aaa(lp6526
(lp6527
I594
aI340
aI566
aa(lp6528
I113
aI0
aaa(lp6529
(lp6530
I594
aI340
aI566
aa(lp6531
I341
aI340
aaa(lp6532
(lp6533
I594
aI566
aa(lp6534
I341
aI600
aI147
aaa(lp6535
(lp6536
I594
aI574
aI247
aa(lp6537
I278
aI467
aI173
aI175
aaa(lp6538
(lp6539
I116
aI574
aI247
aa(lp6540
I13
aI467
aI173
aI259
aI62
aaa(lp6541
(lp6542
I574
aI116
aI247
aa(lp6543
I484
aI257
aI606
aI467
aI126
aI543
aI467
aI259
aI175
aaa(lp6544
(lp6545
I574
aI451
aI247
aa(lp6546
I0
aI467
aI0
aI0
aaa(lp6547
(lp6548
I574
aI451
aI247
aa(lp6549
I593
aI343
aI83
aI467
aI355
aI175
aaa(lp6550
(lp6551
I574
aI451
aI343
aa(lp6552
I0
aI467
aI0
aI0
aaa(lp6553
(lp6554
I574
aI451
aI343
aa(lp6555
I593
aI340
aI83
aI467
aI173
aI175
aaa(lp6556
(lp6557
I340
aI451
aI343
aa(lp6558
I13
aI467
aI173
aI259
aI62
aaa(lp6559
(lp6560
I451
aI340
aI343
aa(lp6561
I593
aI467
aI355
aI175
aaa(lp6562
(lp6563
I594
aI574
aI247
aa(lp6564
I278
aI175
aI173
aaa(lp6565
(lp6566
I116
aI574
aI247
aa(lp6567
I298
aI62
aI173
aI289
aI259
aaa(lp6568
(lp6569
I574
aI116
aI247
aa(lp6570
I484
aI257
aI11
aI467
aI126
aI543
aI259
aaa(lp6571
(lp6572
I574
aI451
aI247
aa(lp6573
I113
aI0
aaa(lp6574
(lp6575
I574
aI451
aI247
aa(lp6576
I341
aI343
aaa(lp6577
(lp6578
I574
aI451
aI343
aa(lp6579
I113
aI0
aaa(lp6580
(lp6581
I574
aI451
aI343
aa(lp6582
I341
aI340
aaa(lp6583
(lp6584
I340
aI451
aI343
aa(lp6585
I298
aI173
aI289
aI259
aaa(lp6586
(lp6587
I451
aI340
aI343
aa(lp6588
I341
aI343
aaa(lp6589
(lp6590
I594
aI574
aI247
aa(lp6591
I484
aI594
aI11
aI467
aI126
aI543
aI467
aI173
aI175
aaa(lp6592
(lp6593
I116
aI574
aI247
aa(lp6594
I298
aI467
aI173
aI289
aI259
aI62
aaa(lp6595
(lp6596
I574
aI116
aI247
aa(lp6597
I484
aI257
aI11
aI467
aI126
aI543
aI467
aI259
aI175
aaa(lp6598
(lp6599
I574
aI451
aI247
aa(lp6600
I0
aI0
aaa(lp6601
(lp6602
I574
aI451
aI247
aa(lp6603
I341
aI343
aI83
aI467
aI126
aI543
aI467
aI355
aI175
aaa(lp6604
(lp6605
I574
aI451
aI343
aa(lp6606
I0
aI0
aaa(lp6607
(lp6608
I574
aI451
aI343
aa(lp6609
I341
aI340
aI83
aI467
aI126
aI543
aI467
aI173
aI175
aaa(lp6610
(lp6611
I340
aI451
aI343
aa(lp6612
I298
aI467
aI173
aI289
aI259
aI62
aaa(lp6613
(lp6614
I451
aI340
aI343
aa(lp6615
I341
aI467
aI355
aI175
aaa(lp6616
(lp6617
I594
aI574
aI462
aa(lp6618
I514
aI175
aI173
aaa(lp6619
(lp6620
I116
aI574
aI462
aa(lp6621
I514
aI175
aI259
aaa(lp6622
(lp6623
I116
aI209
aI462
aa(lp6624
I484
aI105
aI11
aI467
aI126
aI543
aI175
aI173
aaa(lp6625
(lp6626
I306
aI209
aI462
aa(lp6627
I13
aI175
aI173
aI289
aI355
aaa(lp6628
(lp6629
I462
aI209
aI306
aa(lp6630
I514
aI175
aI173
aaa(lp6631
(lp6632
I512
aI209
aI306
aa(lp6633
I341
aI600
aI147
aI83
aI175
aI355
aaa(lp6634
(lp6635
I512
aI209
aI208
aa(lp6636
I341
aI600
aI340
aI83
aI175
aI259
aaa(lp6637
(lp6638
I512
aI121
aI208
aa(lp6639
I341
aI198
aI83
aI175
aI355
aaa(lp6640
(lp6641
I512
aI121
aI122
aa(lp6642
I413
aI175
aI355
aaa(lp6643
(lp6644
I594
aI574
aI46
aa(lp6645
I484
aI46
aI11
aI467
aI126
aI543
aI467
aI355
aI175
aaa(lp6646
(lp6647
I594
aI574
aI130
aa(lp6648
I484
aI386
aI11
aI467
aI126
aI543
aI467
aI259
aI175
aaa(lp6649
(lp6650
I594
aI555
aI130
aa(lp6651
I484
aI555
aI11
aI467
aI126
aI543
aI467
aI259
aI175
aaa(lp6652
(lp6653
I594
aI240
aI130
aa(lp6654
I484
aI594
aI11
aI467
aI126
aI543
aI467
aI173
aI175
aaa(lp6655
(lp6656
I116
aI240
aI130
aa(lp6657
I0
aI0
aI11
aI0
aI67
aaa(lp6658
(lp6659
I116
aI240
aI130
aa(lp6660
I413
aI467
aI158
aI543
aI467
aI554
aI435
aI467
aI259
aI175
aaa(lp6661
(lp6662
I116
aI342
aI130
aa(lp6663
I341
aI340
aI83
aI467
aI126
aI543
aI467
aI259
aI175
aaa(lp6664
(lp6665
I116
aI0
aI130
aa(lp6666
I484
aI163
aI11
aI467
aI196
aI543
aI467
aI259
aI175
aaa(lp6667
(lp6668
I116
aI69
aI130
aa(lp6669
I484
aI251
aI11
aI467
aI126
aI543
aI467
aI259
aI175
aaa(lp6670
(lp6671
I594
aI143
aI150
aa(lp6672
I298
aI62
aI173
aI289
aI259
aaa(lp6673
(lp6674
I143
aI594
aI150
aa(lp6675
I484
aI263
aI11
aI467
aI126
aI543
aI355
aaa(lp6676
(lp6677
I143
aI594
aI35
aa(lp6678
I278
aI175
aI173
aaa(lp6679
(lp6680
I52
aI594
aI35
aa(lp6681
I341
aI147
aaa(lp6682
(lp6683
I52
aI147
aI35
aa(lp6684
I278
aI175
aI355
aaa(lp6685
(lp6686
I52
aI147
aI408
aa(lp6687
I298
aI173
aI289
aI355
aaa(lp6688
(lp6689
I408
aI147
aI52
aa(lp6690
I278
aI175
aI355
aaa(lp6691
(lp6692
I408
aI147
aI436
aa(lp6693
I484
aI292
aI11
aI467
aI196
aI543
aI259
aaa(lp6694
(lp6695
I408
aI313
aI436
aa(lp6696
I413
aI175
aI259
aaa(lp6697
(lp6698
I594
aI574
aI46
aa(lp6699
I514
aI175
aI355
aaa(lp6700
(lp6701
I594
aI574
aI130
aa(lp6702
I484
aI386
aI11
aI175
aI259
aaa(lp6703
(lp6704
I594
aI555
aI130
aa(lp6705
I514
aI175
aI259
aaa(lp6706
(lp6707
I594
aI240
aI130
aa(lp6708
I514
aI175
aI173
aaa(lp6709
(lp6710
I116
aI240
aI130
aa(lp6711
I113
aI0
aaa(lp6712
(lp6713
I116
aI240
aI130
aa(lp6714
I413
aI175
aI259
aaa(lp6715
(lp6716
I116
aI342
aI130
aa(lp6717
I341
aI340
aI83
aI467
aI126
aI543
aI175
aI259
aaa(lp6718
(lp6719
I116
aI0
aI130
aa(lp6720
I484
aI163
aI11
aI467
aI196
aI543
aI175
aI259
aaa(lp6721
(lp6722
I116
aI69
aI130
aa(lp6723
I484
aI251
aI11
aI467
aI126
aI543
aI175
aI259
aaa(lp6724
(lp6725
I594
aI574
aI46
aa(lp6726
I278
aI467
aI355
aI175
aaa(lp6727
(lp6728
I594
aI574
aI130
aa(lp6729
I484
aI386
aI11
aI467
aI259
aI175
aaa(lp6730
(lp6731
I594
aI555
aI130
aa(lp6732
I278
aI467
aI259
aI175
aaa(lp6733
(lp6734
I594
aI240
aI130
aa(lp6735
I278
aI467
aI173
aI175
aaa(lp6736
(lp6737
I116
aI240
aI130
aa(lp6738
I0
aI0
aI467
aI442
aaa(lp6739
(lp6740
I116
aI240
aI130
aa(lp6741
I413
aI467
aI259
aI175
aaa(lp6742
(lp6743
I116
aI342
aI130
aa(lp6744
I593
aI600
aI340
aI83
aI467
aI259
aI175
aaa(lp6745
(lp6746
I116
aI0
aI130
aa(lp6747
I484
aI163
aI11
aI467
aI230
aI543
aI467
aI259
aI175
aaa(lp6748
(lp6749
I116
aI69
aI130
aa(lp6750
I484
aI251
aI11
aI467
aI126
aI543
aI467
aI259
aI175
aaa(lp6751
(lp6752
I594
aI99
aI363
aa(lp6753
I484
aI273
aI11
aI467
aI196
aI543
aI467
aI259
aI175
aaa(lp6754
(lp6755
I594
aI491
aI363
aa(lp6756
I0
aI0
aI435
aI0
aI67
aaa(lp6757
(lp6758
I594
aI491
aI363
aa(lp6759
I484
aI623
aI11
aI467
aI126
aI543
aI467
aI259
aI175
aaa(lp6760
(lp6761
I594
aI559
aI363
aa(lp6762
I484
aI323
aI11
aI467
aI196
aI543
aI467
aI355
aI175
aaa(lp6763
(lp6764
I594
aI559
aI351
aa(lp6765
I341
aI147
aI83
aI467
aI196
aI543
aI467
aI173
aI175
aaa(lp6766
(lp6767
I147
aI559
aI351
aa(lp6768
I298
aI467
aI259
aI289
aI355
aI62
aaa(lp6769
(lp6770
I147
aI351
aI559
aa(lp6771
I413
aI467
aI158
aI543
aI467
aI554
aI435
aI467
aI259
aI175
aaa(lp6772
(lp6773
I147
aI384
aI559
aa(lp6774
I484
aI272
aI11
aI467
aI196
aI543
aI467
aI355
aI175
aaa(lp6775
(lp6776
I147
aI384
aI203
aa(lp6777
I0
aI0
aI11
aI0
aI67
aaa(lp6778
(lp6779
I594
aI99
aI363
aa(lp6780
I484
aI273
aI11
aI467
aI230
aI543
aI175
aI259
aaa(lp6781
(lp6782
I594
aI491
aI363
aa(lp6783
I0
aI0
aI467
aI442
aaa(lp6784
(lp6785
I594
aI491
aI363
aa(lp6786
I484
aI623
aI11
aI467
aI126
aI543
aI175
aI259
aaa(lp6787
(lp6788
I594
aI559
aI363
aa(lp6789
I484
aI323
aI11
aI467
aI230
aI543
aI175
aI355
aaa(lp6790
(lp6791
I594
aI559
aI351
aa(lp6792
I538
aI600
aI147
aI83
aI175
aI173
aaa(lp6793
(lp6794
I147
aI559
aI351
aa(lp6795
I13
aI62
aI259
aI289
aI355
aaa(lp6796
(lp6797
I147
aI351
aI559
aa(lp6798
I413
aI467
aI158
aI543
aI175
aI259
aaa(lp6799
(lp6800
I147
aI384
aI559
aa(lp6801
I484
aI272
aI11
aI467
aI230
aI543
aI175
aI355
aaa(lp6802
(lp6803
I147
aI384
aI203
aa(lp6804
I0
aI0
aI467
aI442
aaa(lp6805
(lp6806
I594
aI99
aI363
aa(lp6807
I484
aI273
aI11
aI467
aI230
aI543
aI467
aI259
aI175
aaa(lp6808
(lp6809
I594
aI491
aI363
aa(lp6810
I0
aI0
aaa(lp6811
(lp6812
I594
aI491
aI363
aa(lp6813
I484
aI623
aI11
aI467
aI126
aI543
aI467
aI259
aI175
aaa(lp6814
(lp6815
I594
aI559
aI363
aa(lp6816
I484
aI323
aI11
aI467
aI230
aI543
aI467
aI355
aI175
aaa(lp6817
(lp6818
I594
aI559
aI351
aa(lp6819
I341
aI147
aI83
aI467
aI173
aI175
aaa(lp6820
(lp6821
I147
aI559
aI351
aa(lp6822
I298
aI467
aI259
aI289
aI355
aI62
aaa(lp6823
(lp6824
I147
aI351
aI559
aa(lp6825
I413
aI467
aI259
aI175
aaa(lp6826
(lp6827
I147
aI384
aI559
aa(lp6828
I484
aI272
aI11
aI467
aI230
aI543
aI467
aI355
aI175
aaa(lp6829
(lp6830
I147
aI384
aI203
aa(lp6831
I0
aI0
aaa(lp6832
(lp6833
I594
aI99
aI312
aa(lp6834
I484
aI343
aI11
aI467
aI126
aI543
aI175
aI355
aaa(lp6835
(lp6836
I594
aI99
aI186
aa(lp6837
I341
aI147
aaa(lp6838
(lp6839
I147
aI99
aI186
aa(lp6840
I278
aI175
aI355
aaa(lp6841
(lp6842
I147
aI99
aI318
aa(lp6843
I341
aI463
aaa(lp6844
(lp6845
I147
aI463
aI318
aa(lp6846
I413
aI175
aI355
aaa(lp6847
(lp6848
I147
aI463
aI328
aa(lp6849
I298
aI173
aI289
aI259
aaa(lp6850
(lp6851
I463
aI147
aI328
aa(lp6852
I113
aI0
aaa(lp6853
(lp6854
I463
aI147
aI328
aa(lp6855
I413
aI175
aI355
aaa(lp6856
(lp6857
I463
aI147
aI318
aa(lp6858
I341
aI343
aI83
aI467
aI126
aI543
aI355
aaa(lp6859
(lp6860
I594
aI99
aI312
aa(lp6861
I484
aI343
aI11
aI467
aI126
aI543
aI467
aI355
aI175
aaa(lp6862
(lp6863
I594
aI99
aI186
aa(lp6864
I341
aI147
aI83
aI467
aI126
aI543
aI467
aI173
aI175
aaa(lp6865
(lp6866
I147
aI99
aI186
aa(lp6867
I484
aI186
aI11
aI467
aI126
aI543
aI467
aI355
aI175
aaa(lp6868
(lp6869
I147
aI99
aI318
aa(lp6870
I341
aI463
aI83
aI467
aI126
aI543
aI467
aI259
aI175
aaa(lp6871
(lp6872
I147
aI463
aI318
aa(lp6873
I413
aI467
aI355
aI175
aaa(lp6874
(lp6875
I147
aI463
aI328
aa(lp6876
I298
aI467
aI173
aI289
aI259
aI62
aaa(lp6877
(lp6878
I463
aI147
aI328
aa(lp6879
I0
aI0
aaa(lp6880
(lp6881
I463
aI147
aI328
aa(lp6882
I413
aI467
aI355
aI175
aaa(lp6883
(lp6884
I463
aI147
aI318
aa(lp6885
I341
aI467
aI173
aI65
aI83
aI467
aI355
aI175
aaa(lp6886
(lp6887
I594
aI526
aI339
aa(lp6888
I341
aI273
aaa(lp6889
(lp6890
I594
aI273
aI339
aa(lp6891
I484
aI228
aI11
aI467
aI196
aI543
aI175
aI355
aaa(lp6892
(lp6893
I594
aI273
aI577
aa(lp6894
I298
aI62
aI173
aI289
aI355
aaa(lp6895
(lp6896
I577
aI273
aI594
aa(lp6897
I298
aI259
aI289
aI355
aaa(lp6898
(lp6899
I577
aI594
aI273
aa(lp6900
I278
aI175
aI173
aaa(lp6901
(lp6902
I453
aI594
aI273
aa(lp6903
I298
aI259
aI289
aI355
aaa(lp6904
(lp6905
I453
aI273
aI594
aa(lp6906
I341
aI175
aI259
aaa(lp6907
(lp6908
I453
aI594
aa(lp6909
I484
aI356
aI11
aI467
aI196
aI543
aI259
aaa(lp6910
(lp6911
I453
aI394
aa(lp6912
I113
aI0
aaa(lp6913
(lp6914
I594
aI526
aI339
aa(lp6915
I341
aI273
aI83
aI467
aI259
aI175
aaa(lp6916
(lp6917
I594
aI273
aI339
aa(lp6918
I484
aI228
aI11
aI467
aI230
aI543
aI467
aI355
aI175
aaa(lp6919
(lp6920
I594
aI273
aI577
aa(lp6921
I298
aI467
aI173
aI289
aI355
aI62
aaa(lp6922
(lp6923
I577
aI273
aI594
aa(lp6924
I298
aI467
aI259
aI289
aI355
aI62
aaa(lp6925
(lp6926
I577
aI594
aI273
aa(lp6927
I484
aI577
aI11
aI467
aI173
aI175
aaa(lp6928
(lp6929
I453
aI594
aI273
aa(lp6930
I298
aI467
aI259
aI289
aI355
aI175
aaa(lp6931
(lp6932
I453
aI273
aI594
aa(lp6933
I341
aI467
aI259
aI175
aaa(lp6934
(lp6935
I453
aI594
aa(lp6936
I484
aI356
aI11
aI467
aI230
aI543
aI467
aI355
aI175
aaa(lp6937
(lp6938
I453
aI394
aa(lp6939
I0
aI0
aaa(lp6940
(lp6941
I594
aI99
aI178
aa(lp6942
I341
aI195
aI543
aI467
aI259
aI175
aaa(lp6943
(lp6944
I594
aI463
aI178
aa(lp6945
I413
aI467
aI158
aI543
aI467
aI355
aI62
aaa(lp6946
(lp6947
I178
aI463
aI594
aa(lp6948
I278
aI467
aI355
aI175
aaa(lp6949
(lp6950
I178
aI463
aI116
aa(lp6951
I13
aI467
aI173
aI259
aI62
aaa(lp6952
(lp6953
I463
aI178
aI116
aa(lp6954
I0
aI0
aaa(lp6955
(lp6956
I463
aI178
aI116
aa(lp6957
I13
aI467
aI355
aI259
aI62
aaa(lp6958
(lp6959
I463
aI116
aI178
aa(lp6960
I0
aI0
aaa(lp6961
(lp6962
I463
aI116
aI178
aa(lp6963
I484
aI0
aI606
aI467
aI230
aI543
aI467
aI259
aI175
aaa(lp6964
(lp6965
I463
aI172
aI178
aa(lp6966
I484
aI418
aI11
aI467
aI126
aI543
aI467
aI355
aI175
aaa.